ccopy_reg
_reconstructor
p0
(cnetworkx.classes.graph
Graph
p1
c__builtin__
object
p2
Ntp3
Rp4
(dp5
S'node'
p6
(dp7
S'hsa-mir-181a'
p8
(dp9
sS'hsa-mir-379'
p10
(dp11
sS'hsa-mir-203'
p12
(dp13
sS'hsa-mir-205'
p14
(dp15
sS'hsa-mir-526b'
p16
(dp17
sS'hsa-mir-526a'
p18
(dp19
sS'hsa-mir-92a'
p20
(dp21
sS'hsa-mir-371'
p22
(dp23
sS'hsa-mir-370'
p24
(dp25
sS'hsa-mir-373'
p26
(dp27
sS'hsa-mir-372'
p28
(dp29
sS'hsa-mir-375'
p30
(dp31
sS'hsa-mir-328'
p32
(dp33
sS'hsa-mir-377'
p34
(dp35
sS'hsa-mir-365'
p36
(dp37
sS'hsa-mir-126'
p38
(dp39
sS'hsa-mir-127'
p40
(dp41
sS'hsa-mir-423'
p42
(dp43
sS'hsa-mir-129'
p44
(dp45
sS'hsa-mir-19a'
p46
(dp47
sS'hsa-mir-575'
p48
(dp49
sS'hsa-mir-19b'
p50
(dp51
sS'hsa-mir-32'
p52
(dp53
sS'hsa-mir-29b'
p54
(dp55
sS'hsa-mir-29c'
p56
(dp57
sS'hsa-mir-29a'
p58
(dp59
sS'hsa-mir-181d'
p60
(dp61
sS'hsa-mir-1'
p62
(dp63
sS'hsa-mir-769'
p64
(dp65
sS'hsa-mir-7'
p66
(dp67
sS'hsa-mir-181b'
p68
(dp69
sS'hsa-mir-181c'
p70
(dp71
sS'hsa-mir-486'
p72
(dp73
sS'hsa-mir-484'
p74
(dp75
sS'hsa-mir-217'
p76
(dp77
sS'hsa-mir-214'
p78
(dp79
sS'hsa-mir-215'
p80
(dp81
sS'hsa-mir-212'
p82
(dp83
sS'hsa-mir-210'
p84
(dp85
sS'hsa-mir-211'
p86
(dp87
sS'hsa-mir-367'
p88
(dp89
sS'hsa-mir-92b'
p90
(dp91
sS'hsa-mir-561'
p92
(dp93
sS'hsa-mir-362'
p94
(dp95
sS'hsa-mir-30b'
p96
(dp97
sS'hsa-mir-218'
p98
(dp99
sS'hsa-mir-219'
p100
(dp101
sS'hsa-mir-520a'
p102
(dp103
sS'hsa-mir-520c'
p104
(dp105
sS'hsa-mir-520b'
p106
(dp107
sS'hsa-mir-520e'
p108
(dp109
sS'hsa-mir-520d'
p110
(dp111
sS'hsa-mir-520g'
p112
(dp113
sS'hsa-mir-520f'
p114
(dp115
sS'hsa-mir-9'
p116
(dp117
sS'hsa-mir-520h'
p118
(dp119
sS'hsa-mir-299'
p120
(dp121
sS'hsa-mir-409'
p122
(dp123
sS'hsa-mir-296'
p124
(dp125
sS'hsa-mir-297'
p126
(dp127
sS'hsa-mir-195'
p128
(dp129
sS'hsa-mir-194'
p130
(dp131
sS'hsa-mir-197'
p132
(dp133
sS'hsa-mir-191'
p134
(dp135
sS'hsa-mir-190'
p136
(dp137
sS'hsa-mir-204'
p138
(dp139
sS'hsa-mir-657'
p140
(dp141
sS'hsa-mir-654'
p142
(dp143
sS'hsa-mir-652'
p144
(dp145
sS'hsa-mir-499'
p146
(dp147
sS'hsa-mir-494'
p148
(dp149
sS'hsa-mir-495'
p150
(dp151
sS'hsa-mir-302d'
p152
(dp153
sS'hsa-mir-302c'
p154
(dp155
sS'hsa-mir-302b'
p156
(dp157
sS'hsa-mir-658'
p158
(dp159
sS'hsa-mir-103'
p160
(dp161
sS'hsa-mir-100'
p162
(dp163
sS'hsa-mir-101'
p164
(dp165
sS'hsa-mir-107'
p166
(dp167
sS'hsa-mir-200b'
p168
(dp169
sS'hsa-mir-200c'
p170
(dp171
sS'hsa-mir-200a'
p172
(dp173
sS'hsa-mir-411'
p174
(dp175
sS'hsa-mir-557'
p176
(dp177
sS'hsa-mir-550'
p178
(dp179
sS'hsa-mir-183'
p180
(dp181
sS'hsa-mir-27b'
p182
(dp183
sS'hsa-mir-186'
p184
(dp185
sS'hsa-mir-187'
p186
(dp187
sS'hsa-mir-185'
p188
(dp189
sS'hsa-mir-30a'
p190
(dp191
sS'hsa-mir-188'
p192
(dp193
sS'hsa-mir-30c'
p194
(dp195
sS'hsa-mir-30d'
p196
(dp197
sS'hsa-mir-30e'
p198
(dp199
sS'hsa-let-7b'
p200
(dp201
sS'hsa-mir-449a'
p202
(dp203
sS'hsa-let-7c'
p204
(dp205
sS'hsa-mir-10b'
p206
(dp207
sS'hsa-mir-376c'
p208
(dp209
sS'hsa-mir-429'
p210
(dp211
sS'hsa-mir-622'
p212
(dp213
sS'hsa-mir-382'
p214
(dp215
sS'hsa-mir-383'
p216
(dp217
sS'hsa-mir-208b'
p218
(dp219
sS'hsa-let-7f'
p220
(dp221
sS'hsa-mir-629'
p222
(dp223
sS'hsa-mir-338'
p224
(dp225
sS'hsa-mir-18b'
p226
(dp227
sS'hsa-mir-16'
p228
(dp229
sS'hsa-mir-18a'
p230
(dp231
sS'hsa-mir-125a'
p232
(dp233
sS'hsa-mir-99b'
p234
(dp235
sS'hsa-mir-300'
p236
(dp237
sS'hsa-mir-133a'
p238
(dp239
sS'hsa-mir-133b'
p240
(dp241
sS'hsa-mir-193b'
p242
(dp243
sS'hsa-mir-26a'
p244
(dp245
sS'hsa-mir-192'
p246
(dp247
sS'hsa-mir-15a'
p248
(dp249
sS'hsa-mir-99a'
p250
(dp251
sS'hsa-mir-302a'
p252
(dp253
sS'hsa-mir-323'
p254
(dp255
sS'hsa-mir-421'
p256
(dp257
sS'hsa-mir-128b'
p258
(dp259
sS'hsa-mir-637'
p260
(dp261
sS'hsa-mir-638'
p262
(dp263
sS'hsa-mir-432'
p264
(dp265
sS'hsa-mir-433'
p266
(dp267
sS'hsa-mir-431'
p268
(dp269
sS'hsa-mir-518b'
p270
(dp271
sS'hsa-mir-518c'
p272
(dp273
sS'hsa-let-7a'
p274
(dp275
sS'hsa-mir-339'
p276
(dp277
sS'hsa-let-7g'
p278
(dp279
sS'hsa-let-7d'
p280
(dp281
sS'hsa-let-7e'
p282
(dp283
sS'hsa-mir-335'
p284
(dp285
sS'hsa-mir-337'
p286
(dp287
sS'hsa-let-7i'
p288
(dp289
sS'hsa-mir-331'
p290
(dp291
sS'hsa-mir-330'
p292
(dp293
sS'hsa-mir-539'
p294
(dp295
sS'hsa-mir-196a'
p296
(dp297
sS'hsa-mir-125b'
p298
(dp299
sS'hsa-mir-497'
p300
(dp301
sS'hsa-mir-17'
p302
(dp303
sS'hsa-mir-132'
p304
(dp305
sS'hsa-mir-301b'
p306
(dp307
sS'hsa-mir-301a'
p308
(dp309
sS'hsa-mir-199a'
p310
(dp311
sS'hsa-mir-376a'
p312
(dp313
sS'hsa-mir-153'
p314
(dp315
sS'hsa-mir-523'
p316
(dp317
sS'hsa-mir-601'
p318
(dp319
sS'hsa-mir-600'
p320
(dp321
sS'hsa-mir-602'
p322
(dp323
sS'hsa-mir-20a'
p324
(dp325
sS'hsa-mir-137'
p326
(dp327
sS'hsa-mir-93'
p328
(dp329
sS'hsa-mir-95'
p330
(dp331
sS'hsa-mir-608'
p332
(dp333
sS'hsa-mir-525'
p334
(dp335
sS'hsa-mir-320'
p336
(dp337
sS'hsa-mir-448'
p338
(dp339
sS'hsa-mir-521'
p340
(dp341
sS'hsa-mir-324'
p342
(dp343
sS'hsa-mir-325'
p344
(dp345
sS'hsa-mir-135b'
p346
(dp347
sS'hsa-mir-135a'
p348
(dp349
sS'hsa-mir-134'
p350
(dp351
sS'hsa-mir-148a'
p352
(dp353
sS'hsa-mir-449b'
p354
(dp355
sS'hsa-mir-145'
p356
(dp357
sS'hsa-mir-199b'
p358
(dp359
sS'hsa-mir-33a'
p360
(dp361
sS'hsa-mir-98'
p362
(dp363
sS'hsa-mir-33b'
p364
(dp365
sS'hsa-mir-24'
p366
(dp367
sS'hsa-mir-25'
p368
(dp369
sS'hsa-mir-21'
p370
(dp371
sS'hsa-mir-22'
p372
(dp373
sS'hsa-mir-596'
p374
(dp375
sS'hsa-mir-612'
p376
(dp377
sS'hsa-mir-598'
p378
(dp379
sS'hsa-mir-611'
p380
(dp381
sS'hsa-mir-28'
p382
(dp383
sS'hsa-mir-23a'
p384
(dp385
sS'hsa-mir-23b'
p386
(dp387
sS'hsa-mir-615'
p388
(dp389
sS'hsa-mir-148b'
p390
(dp391
sS'hsa-mir-144'
p392
(dp393
sS'hsa-mir-642'
p394
(dp395
sS'hsa-mir-142'
p396
(dp397
sS'hsa-mir-143'
p398
(dp399
sS'hsa-mir-140'
p400
(dp401
sS'hsa-mir-141'
p402
(dp403
sS'hsa-mir-510'
p404
(dp405
sS'hsa-mir-512'
p406
(dp407
sS'hsa-mir-515'
p408
(dp409
sS'hsa-mir-222'
p410
(dp411
sS'hsa-mir-221'
p412
(dp413
sS'hsa-mir-149'
p414
(dp415
sS'hsa-mir-381'
p416
(dp417
sS'hsa-mir-223'
p418
(dp419
sS'hsa-mir-452'
p420
(dp421
sS'hsa-mir-453'
p422
(dp423
sS'hsa-mir-454'
p424
(dp425
sS'hsa-mir-488'
p426
(dp427
sS'hsa-mir-20b'
p428
(dp429
sS'hsa-mir-34a'
p430
(dp431
sS'hsa-mir-34b'
p432
(dp433
sS'hsa-mir-34c'
p434
(dp435
sS'hsa-mir-220'
p436
(dp437
sS'hsa-mir-216a'
p438
(dp439
sS'hsa-mir-216b'
p440
(dp441
sS'hsa-mir-583'
p442
(dp443
sS'hsa-mir-27a'
p444
(dp445
sS'hsa-mir-663'
p446
(dp447
sS'hsa-mir-662'
p448
(dp449
sS'hsa-mir-660'
p450
(dp451
sS'hsa-mir-516a'
p452
(dp453
sS'hsa-mir-516b'
p454
(dp455
sS'hsa-mir-130a'
p456
(dp457
sS'hsa-mir-130b'
p458
(dp459
sS'hsa-mir-507'
p460
(dp461
sS'hsa-mir-500'
p462
(dp463
sS'hsa-mir-501'
p464
(dp465
sS'hsa-mir-151'
p466
(dp467
sS'hsa-mir-346'
p468
(dp469
sS'hsa-mir-340'
p470
(dp471
sS'hsa-mir-136'
p472
(dp473
sS'hsa-mir-487b'
p474
(dp475
sS'hsa-mir-106a'
p476
(dp477
sS'hsa-mir-106b'
p478
(dp479
sS'hsa-mir-376b'
p480
(dp481
sS'hsa-mir-152'
p482
(dp483
sS'hsa-mir-155'
p484
(dp485
sS'hsa-mir-542'
p486
(dp487
sS'hsa-mir-146b'
p488
(dp489
sS'hsa-mir-146a'
p490
(dp491
sS'hsa-mir-154'
p492
(dp493
ssS'node_dict_factory'
p494
c__builtin__
dict
p495
sS'edge_attr_dict_factory'
p496
g495
sS'edge'
p497
(dp498
g8
(dp499
g68
(dp500
ssg10
(dp501
S'hsa-mir-495'
p502
(dp503
sg464
(dp504
sg94
(dp505
sg474
(dp506
ssg12
(dp507
g180
(dp508
sg246
(dp509
ssg14
(dp510
S'hsa-mir-132'
p511
(dp512
sS'hsa-mir-30c'
p513
(dp514
sS'hsa-mir-499'
p515
(dp516
sS'hsa-mir-204'
p517
(dp518
sS'hsa-mir-210'
p519
(dp520
sS'hsa-mir-101'
p521
(dp522
sS'hsa-mir-218'
p523
(dp524
ssg16
(dp525
S'hsa-mir-340'
p526
(dp527
sS'hsa-mir-526a'
p528
(dp529
sS'hsa-mir-520f'
p530
(dp531
sS'hsa-mir-515'
p532
(dp533
sS'hsa-mir-377'
p534
(dp535
sS'hsa-mir-512'
p536
(dp537
sS'hsa-mir-331'
p538
(dp539
sS'hsa-mir-330'
p540
(dp541
sS'hsa-mir-186'
p542
(dp543
sS'hsa-mir-382'
p544
(dp545
sS'hsa-mir-211'
p546
(dp547
sS'hsa-mir-507'
p548
(dp549
sS'hsa-mir-423'
p550
(dp551
sS'hsa-mir-500'
p552
(dp553
sS'hsa-mir-520d'
p554
(dp555
sS'hsa-mir-520a'
p556
(dp557
sS'hsa-mir-525'
p558
(dp559
sS'hsa-mir-520c'
p560
(dp561
sS'hsa-mir-520b'
p562
(dp563
sS'hsa-mir-520e'
p564
(dp565
sS'hsa-mir-136'
p566
(dp567
sS'hsa-mir-520g'
p568
(dp569
sS'hsa-mir-523'
p570
(dp571
sS'hsa-mir-300'
p572
(dp573
sS'hsa-mir-520h'
p574
(dp575
sS'hsa-mir-325'
p576
(dp577
sS'hsa-mir-297'
p578
(dp579
ssg18
(dp580
S'hsa-mir-340'
p581
(dp582
sS'hsa-mir-526b'
p583
g529
sS'hsa-mir-520f'
p584
(dp585
sS'hsa-mir-515'
p586
(dp587
sS'hsa-mir-377'
p588
(dp589
sS'hsa-mir-512'
p590
(dp591
sS'hsa-mir-331'
p592
(dp593
sS'hsa-mir-330'
p594
(dp595
sS'hsa-mir-186'
p596
(dp597
sS'hsa-mir-382'
p598
(dp599
sS'hsa-mir-211'
p600
(dp601
sS'hsa-mir-507'
p602
(dp603
sS'hsa-mir-423'
p604
(dp605
sS'hsa-mir-500'
p606
(dp607
sS'hsa-mir-520d'
p608
(dp609
sS'hsa-mir-520a'
p610
(dp611
sS'hsa-mir-525'
p612
(dp613
sS'hsa-mir-520c'
p614
(dp615
sS'hsa-mir-520b'
p616
(dp617
sS'hsa-mir-520e'
p618
(dp619
sS'hsa-mir-136'
p620
(dp621
sS'hsa-mir-520g'
p622
(dp623
sS'hsa-mir-523'
p624
(dp625
sS'hsa-mir-300'
p626
(dp627
sS'hsa-mir-520h'
p628
(dp629
sS'hsa-mir-325'
p630
(dp631
sS'hsa-mir-297'
p632
(dp633
ssg20
(dp634
S'hsa-mir-20a'
p635
(dp636
sS'hsa-mir-18a'
p637
(dp638
sS'hsa-mir-17'
p639
(dp640
sS'hsa-mir-19a'
p641
(dp642
sS'hsa-mir-19b'
p643
(dp644
sS'hsa-mir-92b'
p645
(dp646
ssg22
(dp647
S'hsa-mir-520d'
p648
(dp649
ssg24
(dp650
S'hsa-mir-323'
p651
(dp652
sS'hsa-mir-382'
p653
(dp654
sS'hsa-mir-181c'
p655
(dp656
ssg26
(dp657
g28
(dp658
ssg28
(dp659
g26
g658
ssg30
(dp660
S'hsa-mir-301b'
p661
(dp662
sS'hsa-mir-376a'
p663
(dp664
sS'hsa-mir-301a'
p665
(dp666
sS'hsa-mir-449b'
p667
(dp668
sS'hsa-mir-449a'
p669
(dp670
ssg32
(dp671
S'hsa-mir-337'
p672
(dp673
ssg34
(dp674
S'hsa-mir-520a'
p675
(dp676
sS'hsa-mir-525'
p677
(dp678
sS'hsa-mir-512'
p679
(dp680
sS'hsa-mir-520e'
p681
(dp682
sS'hsa-mir-136'
p683
(dp684
sS'hsa-mir-520g'
p685
(dp686
sS'hsa-mir-523'
p687
(dp688
sS'hsa-mir-300'
p689
(dp690
sS'hsa-mir-520h'
p691
(dp692
sS'hsa-mir-325'
p693
(dp694
sS'hsa-mir-331'
p695
(dp696
sS'hsa-mir-330'
p697
(dp698
sS'hsa-mir-526b'
p699
g535
sS'hsa-mir-526a'
p700
g589
sS'hsa-mir-297'
p701
(dp702
sS'hsa-mir-507'
p703
(dp704
sS'hsa-mir-520f'
p705
(dp706
sS'hsa-mir-515'
p707
(dp708
ssg36
(dp709
S'hsa-mir-494'
p710
(dp711
sS'hsa-mir-423'
p712
(dp713
sg250
(dp714
sS'hsa-mir-500'
p715
(dp716
sS'hsa-mir-130b'
p717
(dp718
ssg38
(dp719
S'hsa-let-7c'
p720
(dp721
sS'hsa-mir-125b'
p722
(dp723
sS'hsa-mir-17'
p724
(dp725
sS'hsa-mir-125a'
p726
(dp727
sS'hsa-mir-19b'
p728
(dp729
sS'hsa-mir-145'
p730
(dp731
sS'hsa-mir-155'
p732
(dp733
sS'hsa-mir-143'
p734
(dp735
sS'hsa-mir-34a'
p736
(dp737
ssg40
(dp738
g324
(dp739
sS'hsa-mir-200b'
p740
(dp741
sS'hsa-mir-18a'
p742
(dp743
sS'hsa-mir-200a'
p744
(dp745
sS'hsa-mir-25'
p746
(dp747
sg346
(dp748
sS'hsa-mir-145'
p749
(dp750
sS'hsa-mir-141'
p751
(dp752
sS'hsa-mir-93'
p753
(dp754
sS'hsa-mir-101'
p755
(dp756
sS'hsa-mir-92b'
p757
(dp758
ssg42
(dp759
S'hsa-mir-657'
p760
(dp761
sS'hsa-mir-654'
p762
(dp763
sS'hsa-mir-596'
p764
(dp765
sS'hsa-mir-612'
p766
(dp767
sS'hsa-mir-611'
p768
(dp769
sS'hsa-mir-615'
p770
(dp771
sS'hsa-mir-769'
p772
(dp773
sS'hsa-mir-526b'
p774
g551
sS'hsa-mir-526a'
p775
g605
sS'hsa-mir-637'
p776
(dp777
sS'hsa-mir-638'
p778
(dp779
sS'hsa-mir-520f'
p780
(dp781
sS'hsa-mir-515'
p782
(dp783
sS'hsa-mir-518b'
p784
(dp785
sS'hsa-mir-518c'
p786
(dp787
sS'hsa-mir-512'
p788
(dp789
sS'hsa-mir-557'
p790
(dp791
sS'hsa-mir-331'
p792
(dp793
sS'hsa-mir-330'
p794
(dp795
sg148
(dp796
sS'hsa-mir-185'
p797
(dp798
sS'hsa-mir-642'
p799
(dp800
sS'hsa-mir-583'
p801
(dp802
sS'hsa-mir-486'
p803
(dp804
sS'hsa-mir-662'
p805
(dp806
sS'hsa-mir-622'
p807
(dp808
sS'hsa-mir-601'
p809
(dp810
sS'hsa-mir-600'
p811
(dp812
sS'hsa-mir-130b'
p813
(dp814
sS'hsa-mir-602'
p815
(dp816
sS'hsa-mir-507'
p817
(dp818
sS'hsa-mir-629'
p819
(dp820
sS'hsa-mir-365'
p821
g713
sS'hsa-mir-608'
p822
(dp823
sS'hsa-mir-500'
p824
(dp825
sS'hsa-mir-520a'
p826
(dp827
sS'hsa-mir-525'
p828
(dp829
sS'hsa-mir-520e'
p830
(dp831
sS'hsa-mir-136'
p832
(dp833
sS'hsa-mir-324'
p834
(dp835
sS'hsa-mir-325'
p836
(dp837
sS'hsa-mir-300'
p838
(dp839
sS'hsa-mir-520h'
p840
(dp841
sS'hsa-mir-523'
p842
(dp843
sS'hsa-mir-297'
p844
(dp845
sS'hsa-mir-520g'
p846
(dp847
ssg44
(dp848
g390
(dp849
sS'hsa-mir-340'
p850
(dp851
sS'hsa-mir-27a'
p852
(dp853
sS'hsa-mir-497'
p854
(dp855
sS'hsa-mir-381'
p856
(dp857
sS'hsa-mir-432'
p858
(dp859
ssg46
(dp860
S'hsa-mir-20a'
p861
(dp862
sS'hsa-mir-20b'
p863
(dp864
sS'hsa-mir-125b'
p865
(dp866
sS'hsa-let-7a'
p867
(dp868
sS'hsa-mir-17'
p869
(dp870
sS'hsa-mir-9'
p871
(dp872
sS'hsa-mir-19b'
p873
(dp874
sS'hsa-mir-18a'
p875
(dp876
sS'hsa-mir-155'
p877
(dp878
sS'hsa-mir-34a'
p879
(dp880
sS'hsa-mir-92a'
p881
g642
sS'hsa-mir-92b'
p882
(dp883
ssg48
(dp884
S'hsa-mir-657'
p885
(dp886
sS'hsa-mir-654'
p887
(dp888
sS'hsa-mir-596'
p889
(dp890
sS'hsa-mir-612'
p891
(dp892
sS'hsa-mir-611'
p893
(dp894
sS'hsa-mir-615'
p895
(dp896
sS'hsa-mir-769'
p897
(dp898
sS'hsa-mir-637'
p899
(dp900
sS'hsa-mir-638'
p901
(dp902
sS'hsa-mir-518b'
p903
(dp904
sS'hsa-mir-518c'
p905
(dp906
sS'hsa-mir-557'
p907
(dp908
sS'hsa-mir-454'
p909
(dp910
sS'hsa-mir-185'
p911
(dp912
sS'hsa-mir-642'
p913
(dp914
sS'hsa-mir-583'
p915
(dp916
sS'hsa-mir-486'
p917
(dp918
sS'hsa-mir-663'
p919
(dp920
sS'hsa-mir-662'
p921
(dp922
sg450
(dp923
sS'hsa-mir-622'
p924
(dp925
sS'hsa-mir-601'
p926
(dp927
sS'hsa-mir-600'
p928
(dp929
sS'hsa-mir-602'
p930
(dp931
sS'hsa-mir-629'
p932
(dp933
sS'hsa-mir-608'
p934
(dp935
sS'hsa-mir-324'
p936
(dp937
ssg50
(dp938
S'hsa-mir-20a'
p939
(dp940
sS'hsa-let-7b'
p941
(dp942
sS'hsa-mir-18a'
p943
(dp944
sS'hsa-mir-17'
p945
(dp946
sS'hsa-let-7a'
p947
(dp948
sS'hsa-let-7d'
p949
(dp950
sS'hsa-let-7e'
p951
(dp952
sS'hsa-mir-9'
p953
(dp954
sS'hsa-let-7i'
p955
(dp956
sS'hsa-mir-19a'
p957
g874
sS'hsa-mir-199a'
p958
(dp959
sS'hsa-mir-145'
p960
(dp961
sS'hsa-mir-155'
p962
(dp963
sS'hsa-mir-34a'
p964
(dp965
sS'hsa-let-7f'
p966
(dp967
sS'hsa-mir-92a'
p968
g644
sS'hsa-mir-125a'
p969
(dp970
sS'hsa-let-7c'
p971
(dp972
sS'hsa-mir-126'
p973
g729
sS'hsa-mir-29a'
p974
(dp975
ssg52
(dp976
S'hsa-mir-132'
p977
(dp978
sS'hsa-mir-192'
p979
(dp980
sS'hsa-mir-30c'
p981
(dp982
sS'hsa-mir-191'
p983
(dp984
sg258
(dp985
ssg54
(dp986
S'hsa-mir-20a'
p987
(dp988
sS'hsa-mir-24'
p989
(dp990
sS'hsa-let-7f'
p991
(dp992
sS'hsa-mir-17'
p993
(dp994
sS'hsa-let-7d'
p995
(dp996
sS'hsa-mir-106b'
p997
(dp998
sS'hsa-mir-34b'
p999
(dp1000
sS'hsa-mir-30c'
p1001
(dp1002
sS'hsa-mir-191'
p1003
(dp1004
sS'hsa-mir-29a'
p1005
(dp1006
ssg56
(dp1007
g396
(dp1008
ssg58
(dp1009
S'hsa-mir-17'
p1010
(dp1011
sS'hsa-mir-9'
p1012
(dp1013
sS'hsa-mir-106b'
p1014
(dp1015
sS'hsa-mir-19b'
p1016
g975
sS'hsa-mir-29b'
p1017
g1006
sS'hsa-mir-30e'
p1018
(dp1019
ssg60
(dp1020
g242
(dp1021
sg254
(dp1022
ssg62
(dp1023
S'hsa-mir-133a'
p1024
(dp1025
ssg64
(dp1026
S'hsa-mir-657'
p1027
(dp1028
sS'hsa-mir-654'
p1029
(dp1030
sS'hsa-mir-596'
p1031
(dp1032
sS'hsa-mir-612'
p1033
(dp1034
sS'hsa-mir-611'
p1035
(dp1036
sS'hsa-mir-658'
p1037
(dp1038
sS'hsa-mir-615'
p1039
(dp1040
sS'hsa-mir-637'
p1041
(dp1042
sS'hsa-mir-638'
p1043
(dp1044
sS'hsa-mir-629'
p1045
(dp1046
sS'hsa-mir-518b'
p1047
(dp1048
sS'hsa-mir-518c'
p1049
(dp1050
sS'hsa-mir-557'
p1051
(dp1052
sS'hsa-mir-575'
p1053
g898
sS'hsa-mir-433'
p1054
(dp1055
sS'hsa-mir-185'
p1056
(dp1057
sS'hsa-mir-642'
p1058
(dp1059
sS'hsa-mir-583'
p1060
(dp1061
sS'hsa-mir-486'
p1062
(dp1063
sS'hsa-mir-662'
p1064
(dp1065
sS'hsa-mir-516a'
p1066
(dp1067
sS'hsa-mir-516b'
p1068
(dp1069
sS'hsa-mir-601'
p1070
(dp1071
sS'hsa-mir-600'
p1072
(dp1073
sS'hsa-mir-602'
p1074
(dp1075
sS'hsa-mir-208b'
p1076
(dp1077
sS'hsa-mir-423'
p1078
g773
sS'hsa-mir-608'
p1079
(dp1080
sS'hsa-mir-500'
p1081
(dp1082
sS'hsa-mir-346'
p1083
(dp1084
sS'hsa-mir-324'
p1085
(dp1086
sS'hsa-mir-622'
p1087
(dp1088
sS'hsa-mir-134'
p1089
(dp1090
sS'hsa-mir-197'
p1091
(dp1092
ssg66
(dp1093
S'hsa-mir-93'
p1094
(dp1095
sS'hsa-mir-20b'
p1096
(dp1097
sS'hsa-mir-106b'
p1098
(dp1099
ssg68
(dp1100
g8
g500
ssg70
(dp1101
S'hsa-mir-33a'
p1102
(dp1103
sS'hsa-mir-216b'
p1104
(dp1105
sS'hsa-mir-370'
p1106
g656
sS'hsa-mir-33b'
p1107
(dp1108
sS'hsa-mir-216a'
p1109
(dp1110
sS'hsa-mir-220'
p1111
(dp1112
ssg72
(dp1113
S'hsa-mir-657'
p1114
(dp1115
sS'hsa-mir-654'
p1116
(dp1117
sS'hsa-mir-596'
p1118
(dp1119
sS'hsa-mir-612'
p1120
(dp1121
sS'hsa-mir-611'
p1122
(dp1123
sS'hsa-mir-658'
p1124
(dp1125
sS'hsa-mir-615'
p1126
(dp1127
sS'hsa-mir-769'
p1128
g1063
sS'hsa-mir-637'
p1129
(dp1130
sS'hsa-mir-638'
p1131
(dp1132
sS'hsa-mir-629'
p1133
(dp1134
sS'hsa-mir-518b'
p1135
(dp1136
sS'hsa-mir-518c'
p1137
(dp1138
sS'hsa-mir-557'
p1139
(dp1140
sS'hsa-mir-575'
p1141
g918
sS'hsa-mir-433'
p1142
(dp1143
sS'hsa-mir-185'
p1144
(dp1145
sS'hsa-mir-642'
p1146
(dp1147
sS'hsa-mir-583'
p1148
(dp1149
sS'hsa-mir-662'
p1150
(dp1151
sS'hsa-mir-516a'
p1152
(dp1153
sS'hsa-mir-516b'
p1154
(dp1155
sS'hsa-mir-601'
p1156
(dp1157
sS'hsa-mir-600'
p1158
(dp1159
sS'hsa-mir-602'
p1160
(dp1161
sS'hsa-mir-208b'
p1162
(dp1163
sS'hsa-mir-423'
p1164
g804
sS'hsa-mir-608'
p1165
(dp1166
sS'hsa-mir-500'
p1167
(dp1168
sS'hsa-mir-346'
p1169
(dp1170
sS'hsa-mir-324'
p1171
(dp1172
sS'hsa-mir-622'
p1173
(dp1174
sS'hsa-mir-134'
p1175
(dp1176
sS'hsa-mir-197'
p1177
(dp1178
ssg74
(dp1179
S'hsa-mir-663'
p1180
(dp1181
sS'hsa-mir-23a'
p1182
(dp1183
ssg76
(dp1184
g184
(dp1185
sg136
(dp1186
ssg78
(dp1187
S'hsa-mir-132'
p1188
(dp1189
sS'hsa-mir-320'
p1190
(dp1191
sS'hsa-mir-25'
p1192
(dp1193
sS'hsa-let-7i'
p1194
(dp1195
sS'hsa-mir-199a'
p1196
(dp1197
sS'hsa-mir-93'
p1198
(dp1199
sS'hsa-mir-30c'
p1200
(dp1201
sS'hsa-mir-218'
p1202
(dp1203
sS'hsa-mir-219'
p1204
(dp1205
ssg80
(dp1206
S'hsa-mir-25'
p1207
(dp1208
sS'hsa-mir-320'
p1209
(dp1210
sS'hsa-mir-339'
p1211
(dp1212
sS'hsa-mir-338'
p1213
(dp1214
sS'hsa-mir-488'
p1215
(dp1216
sS'hsa-mir-296'
p1217
(dp1218
sS'hsa-mir-135b'
p1219
(dp1220
sS'hsa-mir-302d'
p1221
(dp1222
sS'hsa-mir-302c'
p1223
(dp1224
sS'hsa-mir-302b'
p1225
(dp1226
sS'hsa-mir-302a'
p1227
(dp1228
sS'hsa-mir-151'
p1229
(dp1230
sS'hsa-mir-153'
p1231
(dp1232
sS'hsa-mir-383'
p1233
(dp1234
sS'hsa-mir-133a'
p1235
(dp1236
sS'hsa-mir-194'
p1237
(dp1238
sS'hsa-mir-367'
p1239
(dp1240
sS'hsa-mir-30b'
p1241
(dp1242
sS'hsa-mir-429'
p1243
(dp1244
sS'hsa-mir-218'
p1245
(dp1246
sS'hsa-mir-219'
p1247
(dp1248
ssg82
(dp1249
S'hsa-mir-30e'
p1250
(dp1251
ssg84
(dp1252
S'hsa-mir-132'
p1253
(dp1254
sS'hsa-mir-200c'
p1255
(dp1256
sS'hsa-mir-429'
p1257
(dp1258
sS'hsa-mir-205'
p1259
g520
sS'hsa-mir-204'
p1260
(dp1261
sS'hsa-mir-30a'
p1262
(dp1263
ssg86
(dp1264
S'hsa-mir-520a'
p1265
(dp1266
sS'hsa-mir-525'
p1267
(dp1268
sS'hsa-mir-520b'
p1269
(dp1270
sS'hsa-mir-520e'
p1271
(dp1272
sS'hsa-mir-136'
p1273
(dp1274
sS'hsa-mir-520g'
p1275
(dp1276
sS'hsa-mir-523'
p1277
(dp1278
sS'hsa-mir-300'
p1279
(dp1280
sS'hsa-mir-520h'
p1281
(dp1282
sS'hsa-mir-325'
p1283
(dp1284
sS'hsa-mir-331'
p1285
(dp1286
sS'hsa-mir-330'
p1287
(dp1288
sS'hsa-mir-526b'
p1289
g547
sS'hsa-mir-526a'
p1290
g601
sS'hsa-mir-297'
p1291
(dp1292
sS'hsa-mir-512'
p1293
(dp1294
sS'hsa-mir-507'
p1295
(dp1296
sS'hsa-mir-520f'
p1297
(dp1298
sS'hsa-mir-515'
p1299
(dp1300
ssg88
(dp1301
S'hsa-mir-25'
p1302
(dp1303
sS'hsa-mir-499'
p1304
(dp1305
sS'hsa-mir-302d'
p1306
(dp1307
sS'hsa-mir-302c'
p1308
(dp1309
sS'hsa-mir-302b'
p1310
(dp1311
sS'hsa-mir-302a'
p1312
(dp1313
sS'hsa-mir-204'
p1314
(dp1315
sS'hsa-mir-103'
p1316
(dp1317
sS'hsa-mir-339'
p1318
(dp1319
sS'hsa-mir-338'
p1320
(dp1321
sS'hsa-mir-30b'
p1322
(dp1323
sS'hsa-mir-488'
p1324
(dp1325
sS'hsa-mir-10b'
p1326
(dp1327
sS'hsa-mir-151'
p1328
(dp1329
sS'hsa-mir-153'
p1330
(dp1331
sS'hsa-mir-215'
p1332
g1240
sS'hsa-mir-93'
p1333
(dp1334
sS'hsa-mir-218'
p1335
(dp1336
sS'hsa-mir-219'
p1337
(dp1338
sS'hsa-mir-429'
p1339
(dp1340
sS'hsa-mir-320'
p1341
(dp1342
sS'hsa-mir-296'
p1343
(dp1344
sS'hsa-mir-135b'
p1345
(dp1346
sS'hsa-mir-133a'
p1347
(dp1348
sS'hsa-mir-383'
p1349
(dp1350
ssg90
(dp1351
S'hsa-mir-18b'
p1352
(dp1353
sS'hsa-mir-18a'
p1354
(dp1355
sS'hsa-let-7g'
p1356
(dp1357
sS'hsa-mir-127'
p1358
g758
sS'hsa-mir-9'
p1359
(dp1360
sS'hsa-mir-19a'
p1361
g883
sS'hsa-mir-20b'
p1362
(dp1363
sS'hsa-mir-92a'
p1364
g646
ssg92
(dp1365
g486
(dp1366
ssg94
(dp1367
S'hsa-mir-379'
p1368
g505
sS'hsa-mir-495'
p1369
(dp1370
sS'hsa-mir-501'
p1371
(dp1372
sS'hsa-mir-487b'
p1373
(dp1374
ssg96
(dp1375
g310
(dp1376
sg336
(dp1377
sg478
(dp1378
sg276
(dp1379
sg426
(dp1380
sg116
(dp1381
sg152
(dp1382
sg154
(dp1383
sg156
(dp1384
sg252
(dp1385
sg198
(dp1386
sg210
(dp1387
sg124
(dp1388
sg80
g1242
sg190
(dp1389
sg88
g1323
sg194
(dp1390
sS'hsa-mir-30d'
p1391
(dp1392
sg296
(dp1393
sS'hsa-mir-218'
p1394
(dp1395
sS'hsa-mir-219'
p1396
(dp1397
ssg98
(dp1398
S'hsa-mir-25'
p1399
(dp1400
sS'hsa-mir-499'
p1401
(dp1402
sS'hsa-mir-302d'
p1403
(dp1404
sS'hsa-mir-302c'
p1405
(dp1406
sS'hsa-mir-302b'
p1407
(dp1408
sS'hsa-mir-302a'
p1409
(dp1410
sS'hsa-mir-205'
p1411
g524
sS'hsa-mir-339'
p1412
(dp1413
sS'hsa-mir-338'
p1414
(dp1415
sS'hsa-mir-34b'
p1416
(dp1417
sS'hsa-mir-30b'
p1418
g1395
sS'hsa-mir-30c'
p1419
(dp1420
sS'hsa-mir-30d'
p1421
(dp1422
sS'hsa-mir-488'
p1423
(dp1424
sS'hsa-mir-151'
p1425
(dp1426
sS'hsa-mir-153'
p1427
(dp1428
sS'hsa-mir-215'
p1429
g1246
sS'hsa-mir-367'
p1430
g1336
sS'hsa-mir-219'
p1431
(dp1432
sS'hsa-mir-429'
p1433
(dp1434
sS'hsa-mir-320'
p1435
(dp1436
sS'hsa-mir-125a'
p1437
(dp1438
sS'hsa-mir-9'
p1439
(dp1440
sS'hsa-mir-135b'
p1441
(dp1442
sS'hsa-mir-133a'
p1443
(dp1444
sS'hsa-mir-214'
p1445
g1203
sS'hsa-mir-296'
p1446
(dp1447
sS'hsa-mir-383'
p1448
(dp1449
sS'hsa-let-7f'
p1450
(dp1451
ssg100
(dp1452
S'hsa-mir-25'
p1453
(dp1454
sS'hsa-mir-320'
p1455
(dp1456
sS'hsa-mir-214'
p1457
g1205
sS'hsa-mir-338'
p1458
(dp1459
sS'hsa-mir-488'
p1460
(dp1461
sS'hsa-mir-9'
p1462
(dp1463
sS'hsa-mir-135b'
p1464
(dp1465
sS'hsa-mir-302d'
p1466
(dp1467
sS'hsa-mir-302c'
p1468
(dp1469
sS'hsa-mir-302b'
p1470
(dp1471
sS'hsa-mir-302a'
p1472
(dp1473
sS'hsa-mir-151'
p1474
(dp1475
sS'hsa-mir-153'
p1476
(dp1477
sS'hsa-mir-215'
p1478
g1248
sS'hsa-mir-383'
p1479
(dp1480
sS'hsa-mir-103'
p1481
(dp1482
sS'hsa-mir-367'
p1483
g1338
sS'hsa-mir-30b'
p1484
g1397
sS'hsa-mir-30d'
p1485
(dp1486
sS'hsa-mir-218'
p1487
g1432
ssg102
(dp1488
S'hsa-mir-340'
p1489
(dp1490
sS'hsa-mir-526b'
p1491
g557
sS'hsa-mir-526a'
p1492
g611
sS'hsa-mir-520f'
p1493
(dp1494
sS'hsa-mir-515'
p1495
(dp1496
sS'hsa-mir-377'
p1497
g676
sS'hsa-mir-512'
p1498
(dp1499
sS'hsa-mir-331'
p1500
(dp1501
sS'hsa-mir-330'
p1502
(dp1503
sS'hsa-mir-186'
p1504
(dp1505
sS'hsa-mir-382'
p1506
(dp1507
sS'hsa-mir-211'
p1508
g1266
sS'hsa-mir-507'
p1509
(dp1510
sS'hsa-mir-423'
p1511
g827
sS'hsa-mir-500'
p1512
(dp1513
sS'hsa-mir-520d'
p1514
(dp1515
sS'hsa-mir-525'
p1516
(dp1517
sS'hsa-mir-520c'
p1518
(dp1519
sS'hsa-mir-520b'
p1520
(dp1521
sS'hsa-mir-520e'
p1522
(dp1523
sS'hsa-mir-136'
p1524
(dp1525
sS'hsa-mir-520g'
p1526
(dp1527
sS'hsa-mir-523'
p1528
(dp1529
sS'hsa-mir-300'
p1530
(dp1531
sS'hsa-mir-520h'
p1532
(dp1533
sS'hsa-mir-325'
p1534
(dp1535
sS'hsa-mir-297'
p1536
(dp1537
ssg104
(dp1538
S'hsa-mir-520a'
p1539
g1519
sS'hsa-mir-525'
p1540
(dp1541
sS'hsa-mir-520b'
p1542
(dp1543
sS'hsa-mir-520e'
p1544
(dp1545
sg340
(dp1546
sS'hsa-mir-520g'
p1547
(dp1548
sS'hsa-mir-523'
p1549
(dp1550
sS'hsa-mir-300'
p1551
(dp1552
sS'hsa-mir-520h'
p1553
(dp1554
sS'hsa-mir-325'
p1555
(dp1556
sS'hsa-mir-331'
p1557
(dp1558
sS'hsa-mir-330'
p1559
(dp1560
sS'hsa-mir-526b'
p1561
g561
sS'hsa-mir-526a'
p1562
g615
sS'hsa-mir-297'
p1563
(dp1564
sS'hsa-mir-512'
p1565
(dp1566
sS'hsa-mir-507'
p1567
(dp1568
sS'hsa-mir-520f'
p1569
(dp1570
sS'hsa-mir-515'
p1571
(dp1572
sS'hsa-mir-136'
p1573
(dp1574
ssg106
(dp1575
S'hsa-mir-499'
p1576
(dp1577
sS'hsa-mir-340'
p1578
(dp1579
sS'hsa-mir-204'
p1580
(dp1581
sS'hsa-mir-526a'
p1582
g617
sS'hsa-mir-520f'
p1583
(dp1584
sS'hsa-mir-515'
p1585
(dp1586
sS'hsa-mir-512'
p1587
(dp1588
sS'hsa-mir-331'
p1589
(dp1590
sS'hsa-mir-330'
p1591
(dp1592
sS'hsa-mir-27a'
p1593
(dp1594
sS'hsa-mir-186'
p1595
(dp1596
sS'hsa-mir-34b'
p1597
(dp1598
sS'hsa-mir-30e'
p1599
(dp1600
sS'hsa-mir-10b'
p1601
(dp1602
sS'hsa-mir-429'
p1603
(dp1604
sS'hsa-mir-98'
p1605
(dp1606
sS'hsa-mir-382'
p1607
(dp1608
sS'hsa-mir-211'
p1609
g1270
sS'hsa-mir-507'
p1610
(dp1611
sS'hsa-mir-520a'
p1612
g1521
sS'hsa-mir-525'
p1613
(dp1614
sS'hsa-mir-520c'
p1615
g1543
sS'hsa-mir-520e'
p1616
(dp1617
sS'hsa-mir-136'
p1618
(dp1619
sS'hsa-mir-520g'
p1620
(dp1621
sS'hsa-mir-325'
p1622
(dp1623
sS'hsa-mir-300'
p1624
(dp1625
sS'hsa-mir-520h'
p1626
(dp1627
sS'hsa-mir-523'
p1628
(dp1629
sS'hsa-mir-297'
p1630
(dp1631
sS'hsa-mir-526b'
p1632
g563
ssg108
(dp1633
S'hsa-mir-526b'
p1634
g565
sS'hsa-mir-526a'
p1635
g619
sS'hsa-mir-520f'
p1636
(dp1637
sS'hsa-mir-515'
p1638
(dp1639
sS'hsa-mir-377'
p1640
g682
sS'hsa-mir-512'
p1641
(dp1642
sS'hsa-mir-331'
p1643
(dp1644
sS'hsa-mir-330'
p1645
(dp1646
sS'hsa-mir-186'
p1647
(dp1648
sS'hsa-mir-382'
p1649
(dp1650
sS'hsa-mir-211'
p1651
g1272
sS'hsa-mir-507'
p1652
(dp1653
sS'hsa-mir-423'
p1654
g831
sS'hsa-mir-500'
p1655
(dp1656
sS'hsa-mir-520d'
p1657
(dp1658
sS'hsa-mir-520a'
p1659
g1523
sS'hsa-mir-525'
p1660
(dp1661
sS'hsa-mir-520c'
p1662
g1545
sS'hsa-mir-520b'
p1663
g1617
sS'hsa-mir-340'
p1664
(dp1665
sS'hsa-mir-136'
p1666
(dp1667
sS'hsa-mir-520g'
p1668
(dp1669
sS'hsa-mir-523'
p1670
(dp1671
sS'hsa-mir-300'
p1672
(dp1673
sS'hsa-mir-520h'
p1674
(dp1675
sS'hsa-mir-325'
p1676
(dp1677
sS'hsa-mir-297'
p1678
(dp1679
ssg110
(dp1680
S'hsa-mir-520a'
p1681
g1515
sS'hsa-mir-525'
p1682
(dp1683
sS'hsa-mir-512'
p1684
(dp1685
sS'hsa-mir-520e'
p1686
g1658
sS'hsa-mir-136'
p1687
(dp1688
sS'hsa-mir-520g'
p1689
(dp1690
sS'hsa-mir-523'
p1691
(dp1692
sS'hsa-mir-300'
p1693
(dp1694
sS'hsa-mir-520h'
p1695
(dp1696
sS'hsa-mir-325'
p1697
(dp1698
sS'hsa-mir-331'
p1699
(dp1700
sS'hsa-mir-330'
p1701
(dp1702
sS'hsa-mir-526b'
p1703
g555
sS'hsa-mir-526a'
p1704
g609
sS'hsa-mir-297'
p1705
(dp1706
sg22
g649
sS'hsa-mir-507'
p1707
(dp1708
sS'hsa-mir-520f'
p1709
(dp1710
sS'hsa-mir-515'
p1711
(dp1712
ssg112
(dp1713
S'hsa-mir-340'
p1714
(dp1715
sS'hsa-mir-526b'
p1716
g569
sS'hsa-mir-526a'
p1717
g623
sS'hsa-mir-520f'
p1718
(dp1719
sS'hsa-mir-515'
p1720
(dp1721
sS'hsa-mir-377'
p1722
g686
sS'hsa-mir-512'
p1723
(dp1724
sS'hsa-mir-331'
p1725
(dp1726
sS'hsa-mir-330'
p1727
(dp1728
sS'hsa-mir-186'
p1729
(dp1730
sS'hsa-mir-382'
p1731
(dp1732
sS'hsa-mir-211'
p1733
g1276
sS'hsa-mir-507'
p1734
(dp1735
sS'hsa-mir-423'
p1736
g847
sS'hsa-mir-500'
p1737
(dp1738
sS'hsa-mir-520d'
p1739
g1690
sS'hsa-mir-520a'
p1740
g1527
sS'hsa-mir-525'
p1741
(dp1742
sS'hsa-mir-520c'
p1743
g1548
sS'hsa-mir-520b'
p1744
g1621
sS'hsa-mir-520e'
p1745
g1669
sS'hsa-mir-136'
p1746
(dp1747
sS'hsa-mir-523'
p1748
(dp1749
sS'hsa-mir-300'
p1750
(dp1751
sS'hsa-mir-520h'
p1752
(dp1753
sS'hsa-mir-325'
p1754
(dp1755
sS'hsa-mir-297'
p1756
(dp1757
ssg114
(dp1758
S'hsa-mir-340'
p1759
(dp1760
sS'hsa-mir-526b'
p1761
g531
sS'hsa-mir-526a'
p1762
g585
sS'hsa-mir-512'
p1763
(dp1764
sS'hsa-mir-515'
p1765
(dp1766
sS'hsa-mir-377'
p1767
g706
sS'hsa-mir-331'
p1768
(dp1769
sS'hsa-mir-330'
p1770
(dp1771
sS'hsa-mir-186'
p1772
(dp1773
sS'hsa-mir-382'
p1774
(dp1775
sS'hsa-mir-211'
p1776
g1298
sS'hsa-mir-507'
p1777
(dp1778
sS'hsa-mir-423'
p1779
g781
sS'hsa-mir-500'
p1780
(dp1781
sS'hsa-mir-520d'
p1782
g1710
sS'hsa-mir-520a'
p1783
g1494
sS'hsa-mir-525'
p1784
(dp1785
sS'hsa-mir-520c'
p1786
g1570
sS'hsa-mir-520b'
p1787
g1584
sS'hsa-mir-520e'
p1788
g1637
sS'hsa-mir-136'
p1789
(dp1790
sS'hsa-mir-520g'
p1791
g1719
sS'hsa-mir-523'
p1792
(dp1793
sS'hsa-mir-300'
p1794
(dp1795
sS'hsa-mir-520h'
p1796
(dp1797
sS'hsa-mir-325'
p1798
(dp1799
sS'hsa-mir-297'
p1800
(dp1801
ssg116
(dp1802
g230
(dp1803
sg278
(dp1804
sg46
g872
sg50
g954
sg314
(dp1805
sg428
(dp1806
sg274
(dp1807
sg96
g1381
sg100
g1463
sg196
(dp1808
sg90
g1360
sg98
g1440
sg58
g1013
ssg118
(dp1809
g470
(dp1810
sg16
g575
sg18
g629
sg114
g1797
sg408
(dp1811
sg34
g692
sg406
(dp1812
sg290
(dp1813
sg292
(dp1814
sS'hsa-mir-186'
p1815
(dp1816
sg214
(dp1817
sg86
g1282
sg460
(dp1818
sg42
g841
sg462
(dp1819
sg110
g1696
sg102
g1533
sg334
(dp1820
sg104
g1554
sg106
g1627
sg108
g1675
sg472
(dp1821
sg112
g1753
sg316
(dp1822
sg236
(dp1823
sg126
(dp1824
sg344
(dp1825
ssg120
(dp1826
S'hsa-mir-495'
p1827
(dp1828
sS'hsa-mir-382'
p1829
(dp1830
sS'hsa-mir-154'
p1831
(dp1832
ssg122
(dp1833
S'hsa-mir-301b'
p1834
(dp1835
sS'hsa-mir-495'
p1836
(dp1837
sS'hsa-mir-337'
p1838
(dp1839
sS'hsa-mir-301a'
p1840
(dp1841
sS'hsa-mir-376a'
p1842
(dp1843
sS'hsa-mir-144'
p1844
(dp1845
sS'hsa-mir-188'
p1846
(dp1847
ssg124
(dp1848
S'hsa-mir-320'
p1849
(dp1850
sS'hsa-mir-339'
p1851
(dp1852
sS'hsa-mir-338'
p1853
(dp1854
sS'hsa-mir-488'
p1855
(dp1856
sS'hsa-mir-302d'
p1857
(dp1858
sS'hsa-mir-302c'
p1859
(dp1860
sS'hsa-mir-302b'
p1861
(dp1862
sS'hsa-mir-302a'
p1863
(dp1864
sS'hsa-mir-429'
p1865
(dp1866
sS'hsa-mir-153'
p1867
(dp1868
sS'hsa-mir-215'
p1869
g1218
sS'hsa-mir-383'
p1870
(dp1871
sS'hsa-mir-367'
p1872
g1344
sS'hsa-mir-30b'
p1873
g1388
sS'hsa-mir-30c'
p1874
(dp1875
sS'hsa-mir-30d'
p1876
(dp1877
sS'hsa-mir-218'
p1878
g1447
ssg126
(dp1879
S'hsa-mir-340'
p1880
(dp1881
sS'hsa-mir-526b'
p1882
g579
sS'hsa-mir-526a'
p1883
g633
sS'hsa-mir-520f'
p1884
g1801
sS'hsa-mir-515'
p1885
(dp1886
sS'hsa-mir-377'
p1887
g702
sS'hsa-mir-512'
p1888
(dp1889
sS'hsa-mir-331'
p1890
(dp1891
sS'hsa-mir-330'
p1892
(dp1893
sS'hsa-mir-186'
p1894
(dp1895
sS'hsa-mir-382'
p1896
(dp1897
sS'hsa-mir-211'
p1898
g1292
sS'hsa-mir-507'
p1899
(dp1900
sS'hsa-mir-423'
p1901
g845
sS'hsa-mir-500'
p1902
(dp1903
sS'hsa-mir-520d'
p1904
g1706
sS'hsa-mir-520a'
p1905
g1537
sS'hsa-mir-525'
p1906
(dp1907
sS'hsa-mir-520c'
p1908
g1564
sS'hsa-mir-520b'
p1909
g1631
sS'hsa-mir-520e'
p1910
g1679
sS'hsa-mir-136'
p1911
(dp1912
sS'hsa-mir-520g'
p1913
g1757
sS'hsa-mir-523'
p1914
(dp1915
sS'hsa-mir-300'
p1916
(dp1917
sS'hsa-mir-520h'
p1918
g1824
sS'hsa-mir-325'
p1919
(dp1920
ssg128
(dp1921
S'hsa-mir-24'
p1922
(dp1923
sg372
(dp1924
ssg130
(dp1925
S'hsa-mir-200b'
p1926
(dp1927
sS'hsa-mir-25'
p1928
(dp1929
sS'hsa-mir-215'
p1930
g1238
sS'hsa-mir-200a'
p1931
(dp1932
sS'hsa-mir-488'
p1933
(dp1934
sS'hsa-mir-135b'
p1935
(dp1936
sS'hsa-mir-302d'
p1937
(dp1938
sS'hsa-mir-151'
p1939
(dp1940
sS'hsa-mir-153'
p1941
(dp1942
sS'hsa-mir-145'
p1943
(dp1944
sS'hsa-mir-383'
p1945
(dp1946
sS'hsa-mir-103'
p1947
(dp1948
sS'hsa-mir-93'
p1949
(dp1950
sS'hsa-mir-429'
p1951
(dp1952
sS'hsa-mir-100'
p1953
(dp1954
ssg132
(dp1955
S'hsa-mir-657'
p1956
(dp1957
sS'hsa-mir-654'
p1958
(dp1959
sS'hsa-mir-596'
p1960
(dp1961
sS'hsa-mir-612'
p1962
(dp1963
sS'hsa-mir-611'
p1964
(dp1965
sS'hsa-mir-615'
p1966
(dp1967
sS'hsa-mir-769'
p1968
g1092
sS'hsa-mir-637'
p1969
(dp1970
sS'hsa-mir-638'
p1971
(dp1972
sS'hsa-mir-220'
p1973
(dp1974
sS'hsa-mir-518b'
p1975
(dp1976
sS'hsa-mir-518c'
p1977
(dp1978
sS'hsa-mir-557'
p1979
(dp1980
sS'hsa-mir-185'
p1981
(dp1982
sS'hsa-mir-216a'
p1983
(dp1984
sS'hsa-mir-216b'
p1985
(dp1986
sS'hsa-mir-642'
p1987
(dp1988
sS'hsa-mir-583'
p1989
(dp1990
sS'hsa-mir-486'
p1991
g1178
sS'hsa-mir-662'
p1992
(dp1993
sS'hsa-mir-622'
p1994
(dp1995
sS'hsa-mir-601'
p1996
(dp1997
sS'hsa-mir-600'
p1998
(dp1999
sS'hsa-mir-602'
p2000
(dp2001
sS'hsa-mir-629'
p2002
(dp2003
sS'hsa-mir-608'
p2004
(dp2005
sS'hsa-mir-324'
p2006
(dp2007
sg360
(dp2008
sS'hsa-mir-33b'
p2009
(dp2010
ssg134
(dp2011
S'hsa-mir-25'
p2012
(dp2013
sS'hsa-mir-30c'
p2014
(dp2015
sS'hsa-let-7f'
p2016
(dp2017
sS'hsa-let-7g'
p2018
(dp2019
sS'hsa-let-7d'
p2020
(dp2021
sS'hsa-mir-132'
p2022
(dp2023
sS'hsa-mir-106a'
p2024
(dp2025
sS'hsa-let-7i'
p2026
(dp2027
sS'hsa-mir-128b'
p2028
(dp2029
sS'hsa-mir-34b'
p2030
(dp2031
sS'hsa-mir-34c'
p2032
(dp2033
sS'hsa-mir-32'
p2034
g984
sS'hsa-mir-93'
p2035
(dp2036
sS'hsa-mir-101'
p2037
(dp2038
sS'hsa-mir-29b'
p2039
g1004
ssg136
(dp2040
g76
g1186
sS'hsa-mir-186'
p2041
(dp2042
ssg138
(dp2043
S'hsa-mir-200c'
p2044
(dp2045
sS'hsa-mir-520b'
p2046
g1581
sS'hsa-mir-499'
p2047
(dp2048
sS'hsa-mir-10b'
p2049
(dp2050
sS'hsa-mir-429'
p2051
(dp2052
sS'hsa-mir-205'
p2053
g518
sS'hsa-mir-210'
p2054
g1261
sS'hsa-mir-367'
p2055
g1315
ssg140
(dp2056
S'hsa-mir-654'
p2057
(dp2058
sS'hsa-mir-596'
p2059
(dp2060
sS'hsa-mir-612'
p2061
(dp2062
sS'hsa-mir-611'
p2063
(dp2064
sS'hsa-mir-658'
p2065
(dp2066
sS'hsa-mir-615'
p2067
(dp2068
sS'hsa-mir-769'
p2069
g1028
sS'hsa-mir-637'
p2070
(dp2071
sS'hsa-mir-638'
p2072
(dp2073
sS'hsa-mir-629'
p2074
(dp2075
sS'hsa-mir-518b'
p2076
(dp2077
sS'hsa-mir-518c'
p2078
(dp2079
sS'hsa-mir-557'
p2080
(dp2081
sS'hsa-mir-575'
p2082
g886
sS'hsa-mir-433'
p2083
(dp2084
sS'hsa-mir-185'
p2085
(dp2086
sS'hsa-mir-642'
p2087
(dp2088
sS'hsa-mir-583'
p2089
(dp2090
sS'hsa-mir-486'
p2091
g1115
sS'hsa-mir-662'
p2092
(dp2093
sS'hsa-mir-516a'
p2094
(dp2095
sS'hsa-mir-516b'
p2096
(dp2097
sS'hsa-mir-601'
p2098
(dp2099
sS'hsa-mir-600'
p2100
(dp2101
sS'hsa-mir-602'
p2102
(dp2103
sS'hsa-mir-208b'
p2104
(dp2105
sS'hsa-mir-423'
p2106
g761
sS'hsa-mir-608'
p2107
(dp2108
sS'hsa-mir-500'
p2109
(dp2110
sS'hsa-mir-346'
p2111
(dp2112
sS'hsa-mir-324'
p2113
(dp2114
sS'hsa-mir-622'
p2115
(dp2116
sS'hsa-mir-134'
p2117
(dp2118
sS'hsa-mir-197'
p2119
g1957
ssg142
(dp2120
S'hsa-mir-657'
p2121
g2058
sS'hsa-mir-596'
p2122
(dp2123
sS'hsa-mir-612'
p2124
(dp2125
sS'hsa-mir-611'
p2126
(dp2127
sS'hsa-mir-658'
p2128
(dp2129
sS'hsa-mir-615'
p2130
(dp2131
sS'hsa-mir-769'
p2132
g1030
sS'hsa-mir-637'
p2133
(dp2134
sS'hsa-mir-638'
p2135
(dp2136
sS'hsa-mir-629'
p2137
(dp2138
sS'hsa-mir-518b'
p2139
(dp2140
sS'hsa-mir-518c'
p2141
(dp2142
sS'hsa-mir-557'
p2143
(dp2144
sS'hsa-mir-575'
p2145
g888
sS'hsa-mir-433'
p2146
(dp2147
sS'hsa-mir-185'
p2148
(dp2149
sS'hsa-mir-642'
p2150
(dp2151
sS'hsa-mir-583'
p2152
(dp2153
sS'hsa-mir-486'
p2154
g1117
sS'hsa-mir-662'
p2155
(dp2156
sS'hsa-mir-516a'
p2157
(dp2158
sS'hsa-mir-516b'
p2159
(dp2160
sS'hsa-mir-601'
p2161
(dp2162
sS'hsa-mir-600'
p2163
(dp2164
sS'hsa-mir-602'
p2165
(dp2166
sS'hsa-mir-208b'
p2167
(dp2168
sS'hsa-mir-423'
p2169
g763
sS'hsa-mir-608'
p2170
(dp2171
sS'hsa-mir-500'
p2172
(dp2173
sS'hsa-mir-346'
p2174
(dp2175
sS'hsa-mir-324'
p2176
(dp2177
sS'hsa-mir-622'
p2178
(dp2179
sS'hsa-mir-134'
p2180
(dp2181
sS'hsa-mir-197'
p2182
g1959
ssg144
(dp2183
g378
(dp2184
sg178
(dp2185
sg294
(dp2186
sg268
(dp2187
ssg146
(dp2188
S'hsa-mir-520b'
p2189
g1577
sg206
(dp2190
sS'hsa-mir-302c'
p2191
(dp2192
sg14
g516
sg138
g2048
sg458
(dp2193
sS'hsa-mir-367'
p2194
g1305
sS'hsa-mir-218'
p2195
g1402
ssg148
(dp2196
S'hsa-mir-423'
p2197
g796
sg36
g711
sS'hsa-mir-500'
p2198
(dp2199
sS'hsa-mir-130b'
p2200
(dp2201
ssg150
(dp2202
S'hsa-mir-487b'
p2203
(dp2204
sS'hsa-mir-299'
p2205
g1828
sS'hsa-mir-409'
p2206
g1837
sg10
g503
sg492
(dp2207
sg400
(dp2208
sg192
(dp2209
sS'hsa-mir-362'
p2210
g1370
sS'hsa-mir-501'
p2211
(dp2212
ssg152
(dp2213
S'hsa-mir-25'
p2214
(dp2215
sS'hsa-mir-302c'
p2216
(dp2217
sS'hsa-mir-302b'
p2218
(dp2219
sS'hsa-mir-302a'
p2220
(dp2221
sS'hsa-mir-103'
p2222
(dp2223
sS'hsa-mir-339'
p2224
(dp2225
sS'hsa-mir-338'
p2226
(dp2227
sS'hsa-mir-30b'
p2228
g1382
sS'hsa-mir-30d'
p2229
(dp2230
sS'hsa-mir-488'
p2231
(dp2232
sS'hsa-mir-151'
p2233
(dp2234
sS'hsa-mir-153'
p2235
(dp2236
sS'hsa-mir-383'
p2237
(dp2238
sS'hsa-mir-367'
p2239
g1307
sS'hsa-mir-93'
p2240
(dp2241
sS'hsa-mir-218'
p2242
g1404
sS'hsa-mir-219'
p2243
g1467
sS'hsa-mir-429'
p2244
(dp2245
sS'hsa-mir-320'
p2246
(dp2247
sS'hsa-mir-296'
p2248
g1858
sS'hsa-mir-135b'
p2249
(dp2250
sS'hsa-mir-215'
p2251
g1222
sS'hsa-mir-194'
p2252
g1938
ssg154
(dp2253
S'hsa-mir-25'
p2254
(dp2255
sS'hsa-mir-320'
p2256
(dp2257
sS'hsa-mir-339'
p2258
(dp2259
sg146
g2192
sS'hsa-mir-488'
p2260
(dp2261
sS'hsa-mir-296'
p2262
g1860
sS'hsa-mir-135b'
p2263
(dp2264
sS'hsa-mir-302d'
p2265
g2217
sS'hsa-mir-133a'
p2266
(dp2267
sS'hsa-mir-302b'
p2268
(dp2269
sS'hsa-mir-302a'
p2270
(dp2271
sS'hsa-mir-151'
p2272
(dp2273
sS'hsa-mir-153'
p2274
(dp2275
sS'hsa-mir-215'
p2276
g1224
sS'hsa-mir-338'
p2277
(dp2278
sS'hsa-mir-383'
p2279
(dp2280
sS'hsa-mir-367'
p2281
g1309
sS'hsa-mir-30b'
p2282
g1383
sS'hsa-mir-429'
p2283
(dp2284
sS'hsa-mir-218'
p2285
g1406
sS'hsa-mir-219'
p2286
g1469
ssg156
(dp2287
S'hsa-mir-429'
p2288
(dp2289
sS'hsa-mir-320'
p2290
(dp2291
sS'hsa-mir-200a'
p2292
(dp2293
sS'hsa-mir-339'
p2294
(dp2295
sS'hsa-mir-338'
p2296
(dp2297
sS'hsa-mir-488'
p2298
(dp2299
sS'hsa-mir-296'
p2300
g1862
sS'hsa-mir-133a'
p2301
(dp2302
sS'hsa-mir-302d'
p2303
g2219
sS'hsa-mir-302c'
p2304
g2269
sS'hsa-mir-302a'
p2305
(dp2306
sS'hsa-mir-151'
p2307
(dp2308
sS'hsa-mir-153'
p2309
(dp2310
sS'hsa-mir-215'
p2311
g1226
sS'hsa-mir-383'
p2312
(dp2313
sS'hsa-mir-367'
p2314
g1311
sS'hsa-mir-30b'
p2315
g1384
sS'hsa-mir-218'
p2316
g1408
sS'hsa-mir-219'
p2317
g1471
ssg158
(dp2318
S'hsa-mir-657'
p2319
g2066
sS'hsa-mir-654'
p2320
g2129
sS'hsa-mir-596'
p2321
(dp2322
sS'hsa-mir-612'
p2323
(dp2324
sS'hsa-mir-611'
p2325
(dp2326
sS'hsa-mir-615'
p2327
(dp2328
sS'hsa-mir-769'
p2329
g1038
sS'hsa-mir-637'
p2330
(dp2331
sS'hsa-mir-638'
p2332
(dp2333
sS'hsa-mir-518b'
p2334
(dp2335
sS'hsa-mir-518c'
p2336
(dp2337
sS'hsa-mir-557'
p2338
(dp2339
sS'hsa-mir-185'
p2340
(dp2341
sS'hsa-mir-642'
p2342
(dp2343
sS'hsa-mir-583'
p2344
(dp2345
sS'hsa-mir-486'
p2346
g1125
sS'hsa-mir-662'
p2347
(dp2348
sS'hsa-mir-622'
p2349
(dp2350
sS'hsa-mir-601'
p2351
(dp2352
sS'hsa-mir-600'
p2353
(dp2354
sS'hsa-mir-602'
p2355
(dp2356
sg256
(dp2357
sS'hsa-mir-629'
p2358
(dp2359
sS'hsa-mir-608'
p2360
(dp2361
sS'hsa-mir-324'
p2362
(dp2363
ssg160
(dp2364
S'hsa-mir-429'
p2365
(dp2366
sS'hsa-mir-320'
p2367
(dp2368
sS'hsa-mir-200a'
p2369
(dp2370
sS'hsa-mir-338'
p2371
(dp2372
sS'hsa-mir-99b'
p2373
(dp2374
sS'hsa-mir-302d'
p2375
g2223
sS'hsa-mir-151'
p2376
(dp2377
sS'hsa-mir-153'
p2378
(dp2379
sS'hsa-mir-383'
p2380
(dp2381
sS'hsa-mir-194'
p2382
g1948
sS'hsa-mir-367'
p2383
g1317
sS'hsa-mir-488'
p2384
(dp2385
sS'hsa-mir-100'
p2386
(dp2387
sS'hsa-mir-219'
p2388
g1482
ssg162
(dp2389
S'hsa-mir-125a'
p2390
(dp2391
sS'hsa-mir-335'
p2392
(dp2393
sS'hsa-mir-99b'
p2394
(dp2395
sS'hsa-mir-151'
p2396
(dp2397
sS'hsa-mir-145'
p2398
(dp2399
sS'hsa-mir-130a'
p2400
(dp2401
sS'hsa-mir-194'
p2402
g1954
sS'hsa-mir-103'
p2403
g2387
ssg164
(dp2404
S'hsa-mir-127'
p2405
g756
sS'hsa-mir-106a'
p2406
(dp2407
sS'hsa-mir-145'
p2408
(dp2409
sS'hsa-mir-205'
p2410
g522
sS'hsa-mir-34c'
p2411
(dp2412
sS'hsa-mir-191'
p2413
g2038
ssg166
(dp2414
S'hsa-mir-132'
p2415
(dp2416
sS'hsa-mir-148a'
p2417
(dp2418
sS'hsa-mir-497'
p2419
(dp2420
ssg168
(dp2421
S'hsa-mir-20a'
p2422
(dp2423
sS'hsa-mir-25'
p2424
(dp2425
sS'hsa-let-7a'
p2426
(dp2427
sS'hsa-mir-200a'
p2428
(dp2429
sS'hsa-let-7d'
p2430
(dp2431
sS'hsa-mir-127'
p2432
g741
sg170
(dp2433
sS'hsa-mir-429'
p2434
(dp2435
sS'hsa-mir-145'
p2436
(dp2437
sS'hsa-mir-141'
p2438
(dp2439
sg130
g1927
sS'hsa-mir-199a'
p2440
(dp2441
sS'hsa-let-7b'
p2442
(dp2443
ssg170
(dp2444
S'hsa-mir-200b'
p2445
g2433
sS'hsa-mir-429'
p2446
(dp2447
sS'hsa-mir-200a'
p2448
(dp2449
sS'hsa-mir-204'
p2450
g2045
sS'hsa-mir-210'
p2451
g1256
ssg172
(dp2452
S'hsa-mir-200b'
p2453
g2429
sS'hsa-mir-25'
p2454
(dp2455
sS'hsa-mir-30d'
p2456
(dp2457
sS'hsa-mir-127'
p2458
g745
sS'hsa-mir-200c'
p2459
g2449
sS'hsa-mir-99b'
p2460
(dp2461
sS'hsa-mir-302b'
p2462
g2293
sS'hsa-mir-151'
p2463
(dp2464
sS'hsa-mir-145'
p2465
(dp2466
sS'hsa-mir-194'
p2467
g1932
sS'hsa-mir-141'
p2468
(dp2469
sS'hsa-mir-103'
p2470
g2370
sS'hsa-mir-93'
p2471
(dp2472
sS'hsa-mir-429'
p2473
(dp2474
sS'hsa-mir-199a'
p2475
(dp2476
ssg174
(dp2477
g482
(dp2478
ssg176
(dp2479
S'hsa-mir-657'
p2480
g2081
sS'hsa-mir-654'
p2481
g2144
sS'hsa-mir-596'
p2482
(dp2483
sS'hsa-mir-612'
p2484
(dp2485
sS'hsa-mir-611'
p2486
(dp2487
sS'hsa-mir-658'
p2488
g2339
sS'hsa-mir-615'
p2489
(dp2490
sS'hsa-mir-769'
p2491
g1052
sS'hsa-mir-637'
p2492
(dp2493
sS'hsa-mir-638'
p2494
(dp2495
sS'hsa-mir-629'
p2496
(dp2497
sS'hsa-mir-518b'
p2498
(dp2499
sS'hsa-mir-518c'
p2500
(dp2501
sS'hsa-mir-575'
p2502
g908
sS'hsa-mir-433'
p2503
(dp2504
sS'hsa-mir-185'
p2505
(dp2506
sS'hsa-mir-642'
p2507
(dp2508
sS'hsa-mir-583'
p2509
(dp2510
sS'hsa-mir-486'
p2511
g1140
sS'hsa-mir-662'
p2512
(dp2513
sS'hsa-mir-516a'
p2514
(dp2515
sS'hsa-mir-516b'
p2516
(dp2517
sS'hsa-mir-601'
p2518
(dp2519
sS'hsa-mir-600'
p2520
(dp2521
sS'hsa-mir-602'
p2522
(dp2523
sS'hsa-mir-208b'
p2524
(dp2525
sS'hsa-mir-423'
p2526
g791
sS'hsa-mir-608'
p2527
(dp2528
sS'hsa-mir-500'
p2529
(dp2530
sS'hsa-mir-346'
p2531
(dp2532
sS'hsa-mir-324'
p2533
(dp2534
sS'hsa-mir-622'
p2535
(dp2536
sS'hsa-mir-134'
p2537
(dp2538
sS'hsa-mir-197'
p2539
g1980
ssg178
(dp2540
S'hsa-mir-598'
p2541
(dp2542
sg144
g2185
sS'hsa-mir-539'
p2543
(dp2544
sS'hsa-mir-431'
p2545
(dp2546
ssg180
(dp2547
g12
g508
ssg182
(dp2548
S'hsa-mir-33a'
p2549
(dp2550
sg186
(dp2551
sS'hsa-mir-216b'
p2552
(dp2553
sS'hsa-mir-33b'
p2554
(dp2555
sS'hsa-mir-216a'
p2556
(dp2557
sS'hsa-mir-220'
p2558
(dp2559
ssg184
(dp2560
S'hsa-mir-526b'
p2561
g543
sS'hsa-mir-526a'
p2562
g597
sS'hsa-mir-507'
p2563
(dp2564
sS'hsa-mir-512'
p2565
(dp2566
sS'hsa-mir-515'
p2567
(dp2568
sS'hsa-mir-331'
p2569
(dp2570
sS'hsa-mir-330'
p2571
(dp2572
sS'hsa-mir-520f'
p2573
g1773
sS'hsa-mir-217'
p2574
g1185
sS'hsa-mir-340'
p2575
(dp2576
sS'hsa-mir-520a'
p2577
g1505
sS'hsa-mir-525'
p2578
(dp2579
sS'hsa-mir-520b'
p2580
g1596
sS'hsa-mir-520e'
p2581
g1648
sS'hsa-mir-136'
p2582
(dp2583
sS'hsa-mir-520g'
p2584
g1730
sS'hsa-mir-325'
p2585
(dp2586
sS'hsa-mir-300'
p2587
(dp2588
sS'hsa-mir-520h'
p2589
g1816
sS'hsa-mir-523'
p2590
(dp2591
sS'hsa-mir-297'
p2592
g1895
sS'hsa-mir-190'
p2593
g2042
ssg186
(dp2594
S'hsa-mir-27b'
p2595
g2551
ssg188
(dp2596
S'hsa-mir-657'
p2597
g2086
sS'hsa-mir-654'
p2598
g2149
sS'hsa-mir-596'
p2599
(dp2600
sS'hsa-mir-612'
p2601
(dp2602
sS'hsa-mir-611'
p2603
(dp2604
sS'hsa-mir-658'
p2605
g2341
sS'hsa-mir-615'
p2606
(dp2607
sS'hsa-mir-769'
p2608
g1057
sS'hsa-mir-637'
p2609
(dp2610
sS'hsa-mir-638'
p2611
(dp2612
sS'hsa-mir-629'
p2613
(dp2614
sS'hsa-mir-518b'
p2615
(dp2616
sS'hsa-mir-518c'
p2617
(dp2618
sS'hsa-mir-557'
p2619
g2506
sS'hsa-mir-575'
p2620
g912
sS'hsa-mir-433'
p2621
(dp2622
sS'hsa-mir-642'
p2623
(dp2624
sS'hsa-mir-583'
p2625
(dp2626
sS'hsa-mir-486'
p2627
g1145
sS'hsa-mir-662'
p2628
(dp2629
sS'hsa-mir-516a'
p2630
(dp2631
sS'hsa-mir-516b'
p2632
(dp2633
sS'hsa-mir-601'
p2634
(dp2635
sS'hsa-mir-600'
p2636
(dp2637
sS'hsa-mir-602'
p2638
(dp2639
sS'hsa-mir-208b'
p2640
(dp2641
sS'hsa-mir-423'
p2642
g798
sS'hsa-mir-608'
p2643
(dp2644
sS'hsa-mir-500'
p2645
(dp2646
sS'hsa-mir-346'
p2647
(dp2648
sS'hsa-mir-324'
p2649
(dp2650
sS'hsa-mir-622'
p2651
(dp2652
sS'hsa-mir-134'
p2653
(dp2654
sS'hsa-mir-197'
p2655
g1982
ssg190
(dp2656
S'hsa-mir-30b'
p2657
g1389
sS'hsa-mir-196a'
p2658
(dp2659
sS'hsa-mir-210'
p2660
g1263
ssg192
(dp2661
g306
(dp2662
sS'hsa-mir-495'
p2663
g2209
sg286
(dp2664
sg308
(dp2665
sg122
g1847
sg312
(dp2666
sg392
(dp2667
ssg194
(dp2668
S'hsa-mir-132'
p2669
(dp2670
sS'hsa-let-7f'
p2671
(dp2672
sS'hsa-let-7d'
p2673
(dp2674
sS'hsa-mir-25'
p2675
(dp2676
sS'hsa-mir-296'
p2677
g1875
sS'hsa-mir-191'
p2678
g2015
sS'hsa-mir-199a'
p2679
(dp2680
sS'hsa-mir-214'
p2681
g1201
sS'hsa-mir-145'
p2682
(dp2683
sS'hsa-mir-205'
p2684
g514
sS'hsa-mir-32'
p2685
g982
sS'hsa-mir-30b'
p2686
g1390
sS'hsa-mir-29b'
p2687
g1002
sS'hsa-mir-196a'
p2688
(dp2689
sS'hsa-mir-218'
p2690
g1420
ssg196
(dp2691
S'hsa-mir-25'
p2692
(dp2693
sS'hsa-mir-200a'
p2694
g2457
sS'hsa-mir-488'
p2695
(dp2696
sS'hsa-mir-9'
p2697
g1808
sS'hsa-mir-302d'
p2698
g2230
sS'hsa-mir-199a'
p2699
(dp2700
sS'hsa-mir-296'
p2701
g1877
sS'hsa-mir-30b'
p2702
g1392
sS'hsa-mir-93'
p2703
(dp2704
sS'hsa-mir-218'
p2705
g1422
sS'hsa-mir-219'
p2706
g1486
ssg198
(dp2707
S'hsa-mir-520b'
p2708
g1600
sS'hsa-let-7g'
p2709
(dp2710
sS'hsa-mir-98'
p2711
(dp2712
sS'hsa-mir-26a'
p2713
(dp2714
sg82
g1251
sS'hsa-mir-34b'
p2715
(dp2716
sS'hsa-mir-30b'
p2717
g1386
sS'hsa-mir-29a'
p2718
g1019
ssg200
(dp2719
S'hsa-mir-200b'
p2720
g2443
sS'hsa-let-7c'
p2721
(dp2722
sS'hsa-mir-18a'
p2723
(dp2724
sS'hsa-mir-17'
p2725
(dp2726
sS'hsa-let-7g'
p2727
(dp2728
sS'hsa-let-7d'
p2729
(dp2730
sS'hsa-let-7e'
p2731
(dp2732
sS'hsa-let-7i'
p2733
(dp2734
sS'hsa-mir-19b'
p2735
g942
sS'hsa-let-7a'
p2736
(dp2737
sS'hsa-let-7f'
p2738
(dp2739
ssg202
(dp2740
S'hsa-mir-301b'
p2741
(dp2742
sS'hsa-mir-301a'
p2743
(dp2744
sS'hsa-mir-376a'
p2745
(dp2746
sS'hsa-mir-376b'
p2747
(dp2748
sS'hsa-mir-449b'
p2749
(dp2750
sS'hsa-mir-375'
p2751
g670
ssg204
(dp2752
S'hsa-let-7b'
p2753
g2722
sS'hsa-mir-132'
p2754
(dp2755
sS'hsa-let-7a'
p2756
(dp2757
sS'hsa-mir-17'
p2758
(dp2759
sS'hsa-let-7g'
p2760
(dp2761
sS'hsa-let-7d'
p2762
(dp2763
sS'hsa-let-7e'
p2764
(dp2765
sS'hsa-let-7i'
p2766
(dp2767
sS'hsa-mir-19b'
p2768
g972
sS'hsa-mir-98'
p2769
(dp2770
sS'hsa-mir-145'
p2771
(dp2772
sS'hsa-mir-34a'
p2773
(dp2774
sS'hsa-let-7f'
p2775
(dp2776
sS'hsa-mir-126'
p2777
g721
sS'hsa-mir-222'
p2778
(dp2779
ssg206
(dp2780
S'hsa-mir-520b'
p2781
g1602
sS'hsa-mir-499'
p2782
g2190
sS'hsa-mir-98'
p2783
(dp2784
sg348
(dp2785
sS'hsa-mir-429'
p2786
(dp2787
sS'hsa-mir-27a'
p2788
(dp2789
sS'hsa-mir-153'
p2790
(dp2791
sS'hsa-mir-204'
p2792
g2050
sS'hsa-mir-34b'
p2793
(dp2794
sS'hsa-mir-367'
p2795
g1327
ssg208
(dp2796
S'hsa-mir-335'
p2797
(dp2798
sS'hsa-mir-28'
p2799
(dp2800
ssg210
(dp2801
S'hsa-mir-25'
p2802
(dp2803
sS'hsa-mir-302d'
p2804
g2245
sS'hsa-mir-302c'
p2805
g2284
sS'hsa-mir-302b'
p2806
g2289
sS'hsa-mir-302a'
p2807
(dp2808
sS'hsa-mir-204'
p2809
g2052
sS'hsa-mir-141'
p2810
(dp2811
sS'hsa-mir-103'
p2812
g2366
sS'hsa-mir-200b'
p2813
g2435
sS'hsa-mir-200c'
p2814
g2447
sS'hsa-mir-200a'
p2815
g2474
sS'hsa-mir-339'
p2816
(dp2817
sS'hsa-mir-338'
p2818
(dp2819
sS'hsa-let-7d'
p2820
(dp2821
sS'hsa-mir-30b'
p2822
g1387
sS'hsa-mir-488'
p2823
(dp2824
sS'hsa-mir-10b'
p2825
g2787
sS'hsa-mir-151'
p2826
(dp2827
sS'hsa-mir-153'
p2828
(dp2829
sS'hsa-mir-215'
p2830
g1244
sS'hsa-mir-210'
p2831
g1258
sS'hsa-mir-367'
p2832
g1340
sS'hsa-mir-93'
p2833
(dp2834
sS'hsa-mir-218'
p2835
g1434
sS'hsa-mir-320'
p2836
(dp2837
sS'hsa-mir-520b'
p2838
g1604
sS'hsa-mir-296'
p2839
g1866
sS'hsa-mir-106b'
p2840
(dp2841
sS'hsa-mir-133a'
p2842
(dp2843
sS'hsa-mir-383'
p2844
(dp2845
sS'hsa-let-7f'
p2846
(dp2847
sS'hsa-mir-194'
p2848
g1952
ssg212
(dp2849
S'hsa-mir-657'
p2850
g2116
sS'hsa-mir-654'
p2851
g2179
sS'hsa-mir-596'
p2852
(dp2853
sS'hsa-mir-612'
p2854
(dp2855
sS'hsa-mir-611'
p2856
(dp2857
sS'hsa-mir-658'
p2858
g2350
sS'hsa-mir-615'
p2859
(dp2860
sS'hsa-mir-769'
p2861
g1088
sS'hsa-mir-637'
p2862
(dp2863
sS'hsa-mir-638'
p2864
(dp2865
sS'hsa-mir-433'
p2866
(dp2867
sS'hsa-mir-518b'
p2868
(dp2869
sS'hsa-mir-518c'
p2870
(dp2871
sS'hsa-mir-557'
p2872
g2536
sS'hsa-mir-575'
p2873
g925
sS'hsa-mir-185'
p2874
g2652
sS'hsa-mir-629'
p2875
(dp2876
sS'hsa-mir-642'
p2877
(dp2878
sS'hsa-mir-583'
p2879
(dp2880
sS'hsa-mir-486'
p2881
g1174
sS'hsa-mir-662'
p2882
(dp2883
sS'hsa-mir-516a'
p2884
(dp2885
sS'hsa-mir-516b'
p2886
(dp2887
sS'hsa-mir-601'
p2888
(dp2889
sS'hsa-mir-600'
p2890
(dp2891
sS'hsa-mir-602'
p2892
(dp2893
sS'hsa-mir-208b'
p2894
(dp2895
sS'hsa-mir-423'
p2896
g808
sS'hsa-mir-608'
p2897
(dp2898
sS'hsa-mir-500'
p2899
(dp2900
sS'hsa-mir-346'
p2901
(dp2902
sS'hsa-mir-324'
p2903
(dp2904
sS'hsa-mir-134'
p2905
(dp2906
sS'hsa-mir-197'
p2907
g1995
ssg214
(dp2908
S'hsa-mir-520a'
p2909
g1507
sS'hsa-mir-525'
p2910
(dp2911
sg120
g1830
sS'hsa-mir-520b'
p2912
g1608
sS'hsa-mir-520e'
p2913
g1650
sS'hsa-mir-136'
p2914
(dp2915
sS'hsa-mir-520g'
p2916
g1732
sS'hsa-mir-523'
p2917
(dp2918
sS'hsa-mir-300'
p2919
(dp2920
sg118
g1817
sS'hsa-mir-325'
p2921
(dp2922
sS'hsa-mir-331'
p2923
(dp2924
sS'hsa-mir-330'
p2925
(dp2926
sg24
g654
sS'hsa-mir-526b'
p2927
g545
sS'hsa-mir-526a'
p2928
g599
sS'hsa-mir-297'
p2929
g1897
sS'hsa-mir-512'
p2930
(dp2931
sS'hsa-mir-507'
p2932
(dp2933
sS'hsa-mir-520f'
p2934
g1775
sS'hsa-mir-515'
p2935
(dp2936
ssg216
(dp2937
S'hsa-mir-25'
p2938
(dp2939
sS'hsa-mir-320'
p2940
(dp2941
sS'hsa-mir-338'
p2942
(dp2943
sS'hsa-mir-488'
p2944
(dp2945
sS'hsa-mir-296'
p2946
g1871
sS'hsa-mir-135b'
p2947
(dp2948
sS'hsa-mir-302d'
p2949
g2238
sS'hsa-mir-302c'
p2950
g2280
sS'hsa-mir-302b'
p2951
g2313
sS'hsa-mir-302a'
p2952
(dp2953
sS'hsa-mir-151'
p2954
(dp2955
sS'hsa-mir-153'
p2956
(dp2957
sS'hsa-mir-215'
p2958
g1234
sS'hsa-mir-194'
p2959
g1946
sS'hsa-mir-103'
p2960
g2381
sS'hsa-mir-367'
p2961
g1350
sS'hsa-mir-93'
p2962
(dp2963
sS'hsa-mir-429'
p2964
g2845
sS'hsa-mir-218'
p2965
g1449
sS'hsa-mir-219'
p2966
g1480
ssg218
(dp2967
S'hsa-mir-657'
p2968
g2105
sS'hsa-mir-654'
p2969
g2168
sS'hsa-mir-596'
p2970
(dp2971
sS'hsa-mir-612'
p2972
(dp2973
sS'hsa-mir-611'
p2974
(dp2975
sS'hsa-mir-615'
p2976
(dp2977
sS'hsa-mir-769'
p2978
g1077
sS'hsa-mir-637'
p2979
(dp2980
sS'hsa-mir-638'
p2981
(dp2982
sS'hsa-mir-518b'
p2983
(dp2984
sS'hsa-mir-518c'
p2985
(dp2986
sS'hsa-mir-557'
p2987
g2525
sS'hsa-mir-185'
p2988
g2641
sS'hsa-mir-642'
p2989
(dp2990
sS'hsa-mir-583'
p2991
(dp2992
sS'hsa-mir-486'
p2993
g1163
sS'hsa-mir-662'
p2994
(dp2995
sS'hsa-mir-622'
p2996
g2895
sS'hsa-mir-601'
p2997
(dp2998
sS'hsa-mir-600'
p2999
(dp3000
sS'hsa-mir-602'
p3001
(dp3002
sS'hsa-mir-629'
p3003
(dp3004
sS'hsa-mir-608'
p3005
(dp3006
sS'hsa-mir-324'
p3007
(dp3008
ssg220
(dp3009
S'hsa-let-7b'
p3010
g2739
sS'hsa-mir-25'
p3011
(dp3012
sS'hsa-mir-18a'
p3013
(dp3014
sS'hsa-mir-17'
p3015
(dp3016
sS'hsa-let-7g'
p3017
(dp3018
sS'hsa-let-7d'
p3019
(dp3020
sS'hsa-let-7e'
p3021
(dp3022
sS'hsa-mir-191'
p3023
g2017
sS'hsa-let-7i'
p3024
(dp3025
sS'hsa-mir-19b'
p3026
g967
sS'hsa-mir-429'
p3027
g2847
sS'hsa-mir-98'
p3028
(dp3029
sS'hsa-let-7a'
p3030
(dp3031
sS'hsa-mir-34a'
p3032
(dp3033
sS'hsa-mir-34b'
p3034
(dp3035
sS'hsa-mir-30c'
p3036
g2672
sS'hsa-mir-29b'
p3037
g992
sS'hsa-let-7c'
p3038
g2776
sS'hsa-mir-218'
p3039
g1451
ssg222
(dp3040
S'hsa-mir-657'
p3041
g2075
sS'hsa-mir-654'
p3042
g2138
sS'hsa-mir-596'
p3043
(dp3044
sS'hsa-mir-612'
p3045
(dp3046
sS'hsa-mir-611'
p3047
(dp3048
sS'hsa-mir-658'
p3049
g2359
sS'hsa-mir-615'
p3050
(dp3051
sS'hsa-mir-769'
p3052
g1046
sS'hsa-mir-637'
p3053
(dp3054
sS'hsa-mir-638'
p3055
(dp3056
sS'hsa-mir-433'
p3057
(dp3058
sS'hsa-mir-518b'
p3059
(dp3060
sS'hsa-mir-518c'
p3061
(dp3062
sS'hsa-mir-557'
p3063
g2497
sS'hsa-mir-575'
p3064
g933
sS'hsa-mir-185'
p3065
g2614
sS'hsa-mir-642'
p3066
(dp3067
sS'hsa-mir-583'
p3068
(dp3069
sS'hsa-mir-486'
p3070
g1134
sS'hsa-mir-662'
p3071
(dp3072
sS'hsa-mir-516a'
p3073
(dp3074
sS'hsa-mir-516b'
p3075
(dp3076
sS'hsa-mir-601'
p3077
(dp3078
sS'hsa-mir-600'
p3079
(dp3080
sS'hsa-mir-602'
p3081
(dp3082
sS'hsa-mir-208b'
p3083
g3004
sS'hsa-mir-423'
p3084
g820
sS'hsa-mir-608'
p3085
(dp3086
sS'hsa-mir-500'
p3087
(dp3088
sS'hsa-mir-346'
p3089
(dp3090
sS'hsa-mir-324'
p3091
(dp3092
sS'hsa-mir-622'
p3093
g2876
sS'hsa-mir-134'
p3094
(dp3095
sS'hsa-mir-197'
p3096
g2003
ssg224
(dp3097
S'hsa-mir-25'
p3098
(dp3099
sS'hsa-mir-320'
p3100
(dp3101
sS'hsa-mir-488'
p3102
(dp3103
sS'hsa-mir-296'
p3104
g1854
sS'hsa-mir-135b'
p3105
(dp3106
sS'hsa-mir-302d'
p3107
g2227
sS'hsa-mir-302c'
p3108
g2278
sS'hsa-mir-302b'
p3109
g2297
sS'hsa-mir-302a'
p3110
(dp3111
sS'hsa-mir-151'
p3112
(dp3113
sS'hsa-mir-153'
p3114
(dp3115
sS'hsa-mir-215'
p3116
g1214
sS'hsa-mir-383'
p3117
g2943
sS'hsa-mir-103'
p3118
g2372
sS'hsa-mir-367'
p3119
g1321
sS'hsa-mir-93'
p3120
(dp3121
sS'hsa-mir-429'
p3122
g2819
sS'hsa-mir-218'
p3123
g1415
sS'hsa-mir-219'
p3124
g1459
ssg226
(dp3125
S'hsa-mir-20b'
p3126
(dp3127
sS'hsa-mir-18a'
p3128
(dp3129
sS'hsa-mir-92b'
p3130
g1353
ssg228
(dp3131
g248
(dp3132
sS'hsa-mir-155'
p3133
(dp3134
sS'hsa-mir-17'
p3135
(dp3136
ssg230
(dp3137
S'hsa-mir-20a'
p3138
(dp3139
sg200
g2724
sS'hsa-mir-125b'
p3140
(dp3141
sS'hsa-mir-20b'
p3142
(dp3143
sS'hsa-mir-17'
p3144
(dp3145
sS'hsa-let-7g'
p3146
(dp3147
sg280
(dp3148
sS'hsa-mir-127'
p3149
g743
sS'hsa-mir-9'
p3150
g1803
sg288
(dp3151
sS'hsa-mir-19a'
p3152
g876
sS'hsa-mir-19b'
p3153
g944
sg282
(dp3154
sS'hsa-let-7a'
p3155
(dp3156
sS'hsa-mir-155'
p3157
(dp3158
sS'hsa-mir-34a'
p3159
(dp3160
sg220
g3014
sS'hsa-mir-92a'
p3161
g638
sS'hsa-mir-92b'
p3162
g1355
sg226
g3129
ssg232
(dp3163
g358
(dp3164
sS'hsa-mir-320'
p3165
(dp3166
sS'hsa-mir-125b'
p3167
(dp3168
sS'hsa-mir-126'
p3169
g727
sS'hsa-mir-99b'
p3170
(dp3171
sS'hsa-mir-19b'
p3172
g970
sS'hsa-mir-199a'
p3173
(dp3174
sS'hsa-mir-145'
p3175
(dp3176
sS'hsa-mir-100'
p3177
g2391
sS'hsa-mir-218'
p3178
g1438
ssg234
(dp3179
S'hsa-mir-151'
p3180
(dp3181
sS'hsa-mir-103'
p3182
g2374
sg162
g2395
sS'hsa-mir-200a'
p3183
g2461
sS'hsa-mir-125a'
p3184
g3171
ssg236
(dp3185
S'hsa-mir-340'
p3186
(dp3187
sS'hsa-mir-526b'
p3188
g573
sS'hsa-mir-526a'
p3189
g627
sS'hsa-mir-520f'
p3190
g1795
sS'hsa-mir-515'
p3191
(dp3192
sS'hsa-mir-377'
p3193
g690
sS'hsa-mir-512'
p3194
(dp3195
sS'hsa-mir-331'
p3196
(dp3197
sS'hsa-mir-330'
p3198
(dp3199
sS'hsa-mir-186'
p3200
g2588
sS'hsa-mir-382'
p3201
g2920
sS'hsa-mir-211'
p3202
g1280
sS'hsa-mir-507'
p3203
(dp3204
sS'hsa-mir-423'
p3205
g839
sS'hsa-mir-500'
p3206
(dp3207
sS'hsa-mir-520d'
p3208
g1694
sS'hsa-mir-520a'
p3209
g1531
sS'hsa-mir-525'
p3210
(dp3211
sS'hsa-mir-520c'
p3212
g1552
sS'hsa-mir-520b'
p3213
g1625
sS'hsa-mir-520e'
p3214
g1673
sS'hsa-mir-136'
p3215
(dp3216
sS'hsa-mir-520g'
p3217
g1751
sS'hsa-mir-523'
p3218
(dp3219
sS'hsa-mir-520h'
p3220
g1823
sS'hsa-mir-325'
p3221
(dp3222
sS'hsa-mir-297'
p3223
g1917
ssg238
(dp3224
g62
g1025
sS'hsa-mir-320'
p3225
(dp3226
sS'hsa-mir-302c'
p3227
g2267
sS'hsa-mir-302b'
p3228
g2302
sS'hsa-mir-429'
p3229
g2843
sS'hsa-mir-215'
p3230
g1236
sS'hsa-mir-367'
p3231
g1348
sS'hsa-mir-218'
p3232
g1444
ssg240
(dp3233
S'hsa-mir-340'
p3234
(dp3235
ssg242
(dp3236
g60
g1021
sg330
(dp3237
ssg244
(dp3238
S'hsa-mir-30e'
p3239
g2714
sS'hsa-mir-192'
p3240
(dp3241
ssg246
(dp3242
S'hsa-mir-132'
p3243
(dp3244
sS'hsa-mir-135a'
p3245
(dp3246
sg244
g3241
sS'hsa-mir-203'
p3247
g509
sS'hsa-mir-32'
p3248
g980
sS'hsa-mir-196a'
p3249
(dp3250
ssg248
(dp3251
S'hsa-mir-16'
p3252
g3132
ssg250
(dp3253
S'hsa-mir-365'
p3254
g714
ssg252
(dp3255
S'hsa-mir-429'
p3256
g2808
sS'hsa-mir-320'
p3257
(dp3258
sS'hsa-mir-339'
p3259
(dp3260
sS'hsa-mir-338'
p3261
g3111
sS'hsa-mir-488'
p3262
(dp3263
sS'hsa-mir-296'
p3264
g1864
sS'hsa-mir-135b'
p3265
(dp3266
sS'hsa-mir-302d'
p3267
g2221
sS'hsa-mir-302c'
p3268
g2271
sS'hsa-mir-302b'
p3269
g2306
sS'hsa-mir-151'
p3270
(dp3271
sS'hsa-mir-153'
p3272
(dp3273
sS'hsa-mir-215'
p3274
g1228
sS'hsa-mir-383'
p3275
g2953
sS'hsa-mir-367'
p3276
g1313
sS'hsa-mir-30b'
p3277
g1385
sS'hsa-mir-218'
p3278
g1410
sS'hsa-mir-219'
p3279
g1473
ssg254
(dp3280
S'hsa-mir-181d'
p3281
g1022
sS'hsa-mir-370'
p3282
g652
ssg256
(dp3283
S'hsa-mir-340'
p3284
(dp3285
sS'hsa-mir-658'
p3286
g2357
ssg258
(dp3287
g366
(dp3288
sS'hsa-mir-32'
p3289
g985
sS'hsa-mir-191'
p3290
g2029
ssg260
(dp3291
S'hsa-mir-657'
p3292
g2071
sS'hsa-mir-654'
p3293
g2134
sS'hsa-mir-596'
p3294
(dp3295
sS'hsa-mir-612'
p3296
(dp3297
sS'hsa-mir-611'
p3298
(dp3299
sS'hsa-mir-658'
p3300
g2331
sS'hsa-mir-615'
p3301
(dp3302
sS'hsa-mir-769'
p3303
g1042
sS'hsa-mir-638'
p3304
(dp3305
sS'hsa-mir-629'
p3306
g3054
sS'hsa-mir-518b'
p3307
(dp3308
sS'hsa-mir-518c'
p3309
(dp3310
sS'hsa-mir-557'
p3311
g2493
sS'hsa-mir-575'
p3312
g900
sS'hsa-mir-433'
p3313
(dp3314
sS'hsa-mir-185'
p3315
g2610
sS'hsa-mir-642'
p3316
(dp3317
sS'hsa-mir-583'
p3318
(dp3319
sS'hsa-mir-486'
p3320
g1130
sS'hsa-mir-662'
p3321
(dp3322
sS'hsa-mir-516a'
p3323
(dp3324
sS'hsa-mir-516b'
p3325
(dp3326
sS'hsa-mir-601'
p3327
(dp3328
sS'hsa-mir-600'
p3329
(dp3330
sS'hsa-mir-602'
p3331
(dp3332
sS'hsa-mir-208b'
p3333
g2980
sS'hsa-mir-423'
p3334
g777
sS'hsa-mir-608'
p3335
(dp3336
sS'hsa-mir-500'
p3337
(dp3338
sS'hsa-mir-346'
p3339
(dp3340
sS'hsa-mir-324'
p3341
(dp3342
sS'hsa-mir-622'
p3343
g2863
sS'hsa-mir-134'
p3344
(dp3345
sS'hsa-mir-197'
p3346
g1970
ssg262
(dp3347
S'hsa-mir-657'
p3348
g2073
sS'hsa-mir-654'
p3349
g2136
sS'hsa-mir-596'
p3350
(dp3351
sS'hsa-mir-612'
p3352
(dp3353
sS'hsa-mir-611'
p3354
(dp3355
sS'hsa-mir-658'
p3356
g2333
sS'hsa-mir-615'
p3357
(dp3358
sS'hsa-mir-769'
p3359
g1044
sS'hsa-mir-637'
p3360
g3305
sS'hsa-mir-629'
p3361
g3056
sS'hsa-mir-518b'
p3362
(dp3363
sS'hsa-mir-518c'
p3364
(dp3365
sS'hsa-mir-557'
p3366
g2495
sS'hsa-mir-575'
p3367
g902
sS'hsa-mir-433'
p3368
(dp3369
sS'hsa-mir-185'
p3370
g2612
sS'hsa-mir-642'
p3371
(dp3372
sS'hsa-mir-583'
p3373
(dp3374
sS'hsa-mir-486'
p3375
g1132
sS'hsa-mir-662'
p3376
(dp3377
sS'hsa-mir-516a'
p3378
(dp3379
sS'hsa-mir-516b'
p3380
(dp3381
sS'hsa-mir-601'
p3382
(dp3383
sS'hsa-mir-600'
p3384
(dp3385
sS'hsa-mir-602'
p3386
(dp3387
sS'hsa-mir-208b'
p3388
g2982
sS'hsa-mir-423'
p3389
g779
sS'hsa-mir-608'
p3390
(dp3391
sS'hsa-mir-500'
p3392
(dp3393
sS'hsa-mir-346'
p3394
(dp3395
sS'hsa-mir-324'
p3396
(dp3397
sS'hsa-mir-622'
p3398
g2865
sS'hsa-mir-134'
p3399
(dp3400
sS'hsa-mir-197'
p3401
g1972
ssg264
(dp3402
S'hsa-mir-381'
p3403
(dp3404
sS'hsa-mir-452'
p3405
(dp3406
sS'hsa-mir-497'
p3407
(dp3408
sS'hsa-mir-129'
p3409
g859
ssg266
(dp3410
g140
g2084
sg142
g2147
sg374
(dp3411
sg376
(dp3412
sg380
(dp3413
sg388
(dp3414
sg64
g1055
sg260
g3314
sg262
g3369
sg270
(dp3415
sg272
(dp3416
sg176
g2504
sg188
g2622
sg394
(dp3417
sg442
(dp3418
sg72
g1143
sg448
(dp3419
sg212
g2867
sg318
(dp3420
sg320
(dp3421
sg322
(dp3422
sg222
g3058
sg332
(dp3423
sg342
(dp3424
ssg268
(dp3425
S'hsa-mir-598'
p3426
(dp3427
sg338
(dp3428
sS'hsa-mir-652'
p3429
g2187
sS'hsa-mir-550'
p3430
g2546
sS'hsa-mir-539'
p3431
(dp3432
ssg270
(dp3433
S'hsa-mir-657'
p3434
g2077
sS'hsa-mir-654'
p3435
g2140
sS'hsa-mir-596'
p3436
(dp3437
sS'hsa-mir-612'
p3438
(dp3439
sS'hsa-mir-611'
p3440
(dp3441
sS'hsa-mir-658'
p3442
g2335
sS'hsa-mir-615'
p3443
(dp3444
sS'hsa-mir-769'
p3445
g1048
sS'hsa-mir-637'
p3446
g3308
sS'hsa-mir-638'
p3447
g3363
sS'hsa-mir-433'
p3448
g3415
sS'hsa-mir-518c'
p3449
(dp3450
sS'hsa-mir-557'
p3451
g2499
sS'hsa-mir-575'
p3452
g904
sS'hsa-mir-185'
p3453
g2616
sS'hsa-mir-629'
p3454
g3060
sS'hsa-mir-642'
p3455
(dp3456
sS'hsa-mir-583'
p3457
(dp3458
sS'hsa-mir-486'
p3459
g1136
sS'hsa-mir-662'
p3460
(dp3461
sS'hsa-mir-516a'
p3462
(dp3463
sS'hsa-mir-516b'
p3464
(dp3465
sS'hsa-mir-601'
p3466
(dp3467
sS'hsa-mir-600'
p3468
(dp3469
sS'hsa-mir-602'
p3470
(dp3471
sS'hsa-mir-208b'
p3472
g2984
sS'hsa-mir-423'
p3473
g785
sS'hsa-mir-608'
p3474
(dp3475
sS'hsa-mir-500'
p3476
(dp3477
sS'hsa-mir-346'
p3478
(dp3479
sS'hsa-mir-324'
p3480
(dp3481
sS'hsa-mir-622'
p3482
g2869
sS'hsa-mir-134'
p3483
(dp3484
sS'hsa-mir-197'
p3485
g1976
ssg272
(dp3486
S'hsa-mir-657'
p3487
g2079
sS'hsa-mir-654'
p3488
g2142
sS'hsa-mir-596'
p3489
(dp3490
sS'hsa-mir-612'
p3491
(dp3492
sS'hsa-mir-611'
p3493
(dp3494
sS'hsa-mir-658'
p3495
g2337
sS'hsa-mir-615'
p3496
(dp3497
sS'hsa-mir-769'
p3498
g1050
sS'hsa-mir-637'
p3499
g3310
sS'hsa-mir-638'
p3500
g3365
sS'hsa-mir-629'
p3501
g3062
sS'hsa-mir-518b'
p3502
g3450
sS'hsa-mir-557'
p3503
g2501
sS'hsa-mir-575'
p3504
g906
sS'hsa-mir-433'
p3505
g3416
sS'hsa-mir-185'
p3506
g2618
sS'hsa-mir-642'
p3507
(dp3508
sS'hsa-mir-583'
p3509
(dp3510
sS'hsa-mir-486'
p3511
g1138
sS'hsa-mir-662'
p3512
(dp3513
sS'hsa-mir-516a'
p3514
(dp3515
sS'hsa-mir-516b'
p3516
(dp3517
sS'hsa-mir-601'
p3518
(dp3519
sS'hsa-mir-600'
p3520
(dp3521
sS'hsa-mir-602'
p3522
(dp3523
sS'hsa-mir-208b'
p3524
g2986
sS'hsa-mir-423'
p3525
g787
sS'hsa-mir-608'
p3526
(dp3527
sS'hsa-mir-500'
p3528
(dp3529
sS'hsa-mir-346'
p3530
(dp3531
sS'hsa-mir-324'
p3532
(dp3533
sS'hsa-mir-622'
p3534
g2871
sS'hsa-mir-134'
p3535
(dp3536
sS'hsa-mir-197'
p3537
g1978
ssg274
(dp3538
S'hsa-mir-20a'
p3539
(dp3540
sS'hsa-mir-200b'
p3541
g2427
sS'hsa-mir-18a'
p3542
g3156
sS'hsa-mir-17'
p3543
(dp3544
sS'hsa-let-7g'
p3545
(dp3546
sS'hsa-let-7d'
p3547
(dp3548
sS'hsa-let-7e'
p3549
(dp3550
sS'hsa-mir-9'
p3551
g1807
sS'hsa-let-7i'
p3552
(dp3553
sS'hsa-mir-19a'
p3554
g868
sS'hsa-mir-19b'
p3555
g948
sS'hsa-mir-145'
p3556
(dp3557
sS'hsa-mir-155'
p3558
(dp3559
sg370
(dp3560
sS'hsa-let-7f'
p3561
g3031
sS'hsa-let-7c'
p3562
g2757
sS'hsa-let-7b'
p3563
g2737
ssg276
(dp3564
S'hsa-mir-320'
p3565
(dp3566
sS'hsa-mir-488'
p3567
(dp3568
sS'hsa-mir-296'
p3569
g1852
sS'hsa-mir-302d'
p3570
g2225
sS'hsa-mir-302c'
p3571
g2259
sS'hsa-mir-302b'
p3572
g2295
sS'hsa-mir-302a'
p3573
g3260
sS'hsa-mir-429'
p3574
g2817
sS'hsa-mir-215'
p3575
g1212
sS'hsa-mir-367'
p3576
g1319
sS'hsa-mir-30b'
p3577
g1379
sS'hsa-mir-218'
p3578
g1413
ssg278
(dp3579
S'hsa-let-7b'
p3580
g2728
sS'hsa-let-7c'
p3581
g2761
sS'hsa-mir-18a'
p3582
g3147
sS'hsa-let-7f'
p3583
g3018
sS'hsa-let-7d'
p3584
(dp3585
sS'hsa-let-7e'
p3586
(dp3587
sS'hsa-mir-9'
p3588
g1804
sS'hsa-let-7i'
p3589
(dp3590
sS'hsa-let-7a'
p3591
g3546
sS'hsa-mir-92b'
p3592
g1357
sS'hsa-mir-191'
p3593
g2019
sS'hsa-mir-30e'
p3594
g2710
ssg280
(dp3595
S'hsa-mir-200b'
p3596
g2431
sg304
(dp3597
sS'hsa-mir-18a'
p3598
g3148
sS'hsa-let-7f'
p3599
g3020
sS'hsa-let-7g'
p3600
g3585
sS'hsa-mir-17'
p3601
(dp3602
sS'hsa-let-7e'
p3603
(dp3604
sS'hsa-mir-191'
p3605
g2021
sS'hsa-let-7i'
p3606
(dp3607
sS'hsa-mir-19b'
p3608
g950
sS'hsa-mir-429'
p3609
g2821
sg362
(dp3610
sS'hsa-let-7a'
p3611
g3548
sS'hsa-mir-34a'
p3612
(dp3613
sS'hsa-mir-34b'
p3614
(dp3615
sg204
g2763
sS'hsa-mir-30c'
p3616
g2674
sS'hsa-mir-29b'
p3617
g996
sS'hsa-mir-196a'
p3618
(dp3619
sS'hsa-let-7b'
p3620
g2730
ssg282
(dp3621
S'hsa-let-7b'
p3622
g2732
sS'hsa-let-7c'
p3623
g2765
sS'hsa-mir-18a'
p3624
g3154
sS'hsa-mir-17'
p3625
(dp3626
sS'hsa-let-7g'
p3627
g3587
sS'hsa-let-7d'
p3628
g3604
sS'hsa-let-7i'
p3629
(dp3630
sS'hsa-mir-19b'
p3631
g952
sS'hsa-mir-199a'
p3632
(dp3633
sS'hsa-mir-145'
p3634
(dp3635
sS'hsa-mir-34a'
p3636
(dp3637
sS'hsa-let-7f'
p3638
g3022
sS'hsa-let-7a'
p3639
g3550
sS'hsa-mir-223'
p3640
(dp3641
sS'hsa-mir-221'
p3642
(dp3643
ssg284
(dp3644
S'hsa-mir-151'
p3645
(dp3646
sS'hsa-mir-100'
p3647
g2393
sS'hsa-mir-376c'
p3648
g2798
sS'hsa-mir-130a'
p3649
(dp3650
ssg286
(dp3651
S'hsa-mir-188'
p3652
g2664
sg32
g673
sS'hsa-mir-409'
p3653
g1839
ssg288
(dp3654
S'hsa-let-7b'
p3655
g2734
sS'hsa-mir-25'
p3656
(dp3657
sS'hsa-mir-18a'
p3658
g3151
sS'hsa-let-7f'
p3659
g3025
sS'hsa-let-7g'
p3660
g3590
sS'hsa-let-7d'
p3661
g3607
sS'hsa-let-7e'
p3662
g3630
sS'hsa-mir-19b'
p3663
g956
sS'hsa-mir-199a'
p3664
(dp3665
sS'hsa-mir-214'
p3666
g1195
sS'hsa-mir-145'
p3667
(dp3668
sS'hsa-mir-34a'
p3669
(dp3670
sS'hsa-let-7a'
p3671
g3553
sS'hsa-mir-191'
p3672
g2027
sS'hsa-let-7c'
p3673
g2767
sS'hsa-mir-221'
p3674
(dp3675
ssg290
(dp3676
S'hsa-mir-340'
p3677
(dp3678
sS'hsa-mir-526b'
p3679
g539
sS'hsa-mir-526a'
p3680
g593
sS'hsa-mir-520f'
p3681
g1769
sS'hsa-mir-515'
p3682
(dp3683
sS'hsa-mir-377'
p3684
g696
sS'hsa-mir-512'
p3685
(dp3686
sS'hsa-mir-330'
p3687
(dp3688
sS'hsa-mir-186'
p3689
g2570
sS'hsa-mir-382'
p3690
g2924
sS'hsa-mir-211'
p3691
g1286
sS'hsa-mir-507'
p3692
(dp3693
sS'hsa-mir-423'
p3694
g793
sS'hsa-mir-500'
p3695
(dp3696
sS'hsa-mir-520d'
p3697
g1700
sS'hsa-mir-520a'
p3698
g1501
sS'hsa-mir-525'
p3699
(dp3700
sS'hsa-mir-520c'
p3701
g1558
sS'hsa-mir-520b'
p3702
g1590
sS'hsa-mir-520e'
p3703
g1644
sS'hsa-mir-136'
p3704
(dp3705
sS'hsa-mir-520g'
p3706
g1726
sS'hsa-mir-523'
p3707
(dp3708
sS'hsa-mir-300'
p3709
g3197
sS'hsa-mir-520h'
p3710
g1813
sS'hsa-mir-325'
p3711
(dp3712
sS'hsa-mir-297'
p3713
g1891
ssg292
(dp3714
S'hsa-mir-340'
p3715
(dp3716
sS'hsa-mir-526b'
p3717
g541
sS'hsa-mir-526a'
p3718
g595
sS'hsa-mir-520f'
p3719
g1771
sS'hsa-mir-515'
p3720
(dp3721
sS'hsa-mir-377'
p3722
g698
sS'hsa-mir-512'
p3723
(dp3724
sS'hsa-mir-331'
p3725
g3688
sS'hsa-mir-186'
p3726
g2572
sS'hsa-mir-382'
p3727
g2926
sS'hsa-mir-211'
p3728
g1288
sS'hsa-mir-507'
p3729
(dp3730
sS'hsa-mir-423'
p3731
g795
sS'hsa-mir-500'
p3732
(dp3733
sS'hsa-mir-520d'
p3734
g1702
sS'hsa-mir-520a'
p3735
g1503
sS'hsa-mir-525'
p3736
(dp3737
sS'hsa-mir-520c'
p3738
g1560
sS'hsa-mir-520b'
p3739
g1592
sS'hsa-mir-520e'
p3740
g1646
sS'hsa-mir-136'
p3741
(dp3742
sS'hsa-mir-520g'
p3743
g1728
sS'hsa-mir-523'
p3744
(dp3745
sS'hsa-mir-300'
p3746
g3199
sS'hsa-mir-520h'
p3747
g1814
sS'hsa-mir-325'
p3748
(dp3749
sS'hsa-mir-297'
p3750
g1893
ssg294
(dp3751
S'hsa-mir-598'
p3752
(dp3753
sS'hsa-mir-652'
p3754
g2186
sS'hsa-mir-550'
p3755
g2544
sS'hsa-mir-431'
p3756
g3432
ssg296
(dp3757
S'hsa-mir-132'
p3758
(dp3759
sS'hsa-let-7d'
p3760
g3619
sS'hsa-mir-30a'
p3761
g2659
sS'hsa-mir-30b'
p3762
g1393
sS'hsa-mir-30c'
p3763
g2689
sS'hsa-mir-192'
p3764
g3250
ssg298
(dp3765
S'hsa-mir-20a'
p3766
(dp3767
sS'hsa-mir-18a'
p3768
g3141
sS'hsa-mir-126'
p3769
g723
sS'hsa-mir-17'
p3770
(dp3771
sS'hsa-mir-125a'
p3772
g3168
sS'hsa-mir-19a'
p3773
g866
sS'hsa-mir-145'
p3774
(dp3775
ssg300
(dp3776
S'hsa-mir-340'
p3777
(dp3778
sS'hsa-mir-27a'
p3779
(dp3780
sS'hsa-mir-129'
p3781
g855
sS'hsa-mir-452'
p3782
(dp3783
sS'hsa-mir-381'
p3784
(dp3785
sS'hsa-mir-148a'
p3786
(dp3787
sS'hsa-mir-432'
p3788
g3408
sS'hsa-mir-107'
p3789
g2420
ssg302
(dp3790
S'hsa-mir-20a'
p3791
(dp3792
sS'hsa-let-7b'
p3793
g2726
sS'hsa-mir-16'
p3794
g3136
sS'hsa-mir-18a'
p3795
g3145
sS'hsa-mir-125b'
p3796
g3771
sS'hsa-mir-21'
p3797
(dp3798
sS'hsa-let-7d'
p3799
g3602
sS'hsa-let-7e'
p3800
g3626
sS'hsa-mir-106b'
p3801
(dp3802
sS'hsa-mir-19a'
p3803
g870
sS'hsa-mir-19b'
p3804
g946
sS'hsa-let-7a'
p3805
g3544
sS'hsa-mir-155'
p3806
(dp3807
sS'hsa-mir-34a'
p3808
(dp3809
sS'hsa-let-7f'
p3810
g3016
sS'hsa-mir-92a'
p3811
g640
sS'hsa-mir-126'
p3812
g725
sS'hsa-mir-29b'
p3813
g994
sS'hsa-let-7c'
p3814
g2759
sS'hsa-mir-29a'
p3815
g1011
ssg304
(dp3816
S'hsa-let-7c'
p3817
g2755
sS'hsa-let-7d'
p3818
g3597
sg476
(dp3819
sS'hsa-mir-106b'
p3820
(dp3821
sS'hsa-mir-214'
p3822
g1189
sg166
g2416
sg352
(dp3823
sS'hsa-mir-145'
p3824
(dp3825
sS'hsa-mir-205'
p3826
g512
sg84
g1254
sg52
g978
sS'hsa-mir-192'
p3827
g3244
sS'hsa-mir-30c'
p3828
g2670
sS'hsa-mir-191'
p3829
g2023
sS'hsa-mir-196a'
p3830
g3759
sg488
(dp3831
ssg306
(dp3832
S'hsa-mir-301a'
p3833
(dp3834
sS'hsa-mir-144'
p3835
(dp3836
sS'hsa-mir-409'
p3837
g1835
sS'hsa-mir-376a'
p3838
(dp3839
sS'hsa-mir-376b'
p3840
(dp3841
sS'hsa-mir-449b'
p3842
(dp3843
sS'hsa-mir-449a'
p3844
g2742
sS'hsa-mir-188'
p3845
g2662
sS'hsa-mir-375'
p3846
g662
ssg308
(dp3847
S'hsa-mir-301b'
p3848
g3834
sS'hsa-mir-144'
p3849
(dp3850
sS'hsa-mir-409'
p3851
g1841
sS'hsa-mir-376a'
p3852
(dp3853
sS'hsa-mir-376b'
p3854
(dp3855
sS'hsa-mir-449b'
p3856
(dp3857
sS'hsa-mir-449a'
p3858
g2744
sS'hsa-mir-188'
p3859
g2665
sS'hsa-mir-375'
p3860
g666
ssg310
(dp3861
S'hsa-mir-200b'
p3862
g2441
sS'hsa-mir-25'
p3863
(dp3864
sS'hsa-mir-200a'
p3865
g2476
sS'hsa-mir-125a'
p3866
g3174
sS'hsa-let-7e'
p3867
g3633
sS'hsa-let-7i'
p3868
g3665
sS'hsa-mir-19b'
p3869
g959
sS'hsa-mir-214'
p3870
g1197
sS'hsa-mir-145'
p3871
(dp3872
sS'hsa-mir-34a'
p3873
(dp3874
sS'hsa-mir-30b'
p3875
g1376
sS'hsa-mir-30c'
p3876
g2680
sS'hsa-mir-30d'
p3877
g2700
ssg312
(dp3878
S'hsa-mir-301b'
p3879
g3839
sS'hsa-mir-301a'
p3880
g3853
sS'hsa-mir-144'
p3881
(dp3882
sS'hsa-mir-409'
p3883
g1843
sS'hsa-mir-376b'
p3884
(dp3885
sS'hsa-mir-449b'
p3886
(dp3887
sS'hsa-mir-449a'
p3888
g2746
sS'hsa-mir-188'
p3889
g2666
sS'hsa-mir-375'
p3890
g664
ssg314
(dp3891
S'hsa-mir-25'
p3892
(dp3893
sS'hsa-mir-302d'
p3894
g2236
sS'hsa-mir-302c'
p3895
g2275
sS'hsa-mir-302b'
p3896
g2310
sS'hsa-mir-302a'
p3897
g3273
sS'hsa-mir-103'
p3898
g2379
sS'hsa-mir-338'
p3899
g3115
sS'hsa-mir-488'
p3900
(dp3901
sS'hsa-mir-10b'
p3902
g2791
sS'hsa-mir-151'
p3903
(dp3904
sS'hsa-mir-215'
p3905
g1232
sS'hsa-mir-367'
p3906
g1331
sS'hsa-mir-93'
p3907
(dp3908
sS'hsa-mir-218'
p3909
g1428
sS'hsa-mir-219'
p3910
g1477
sS'hsa-mir-429'
p3911
g2829
sS'hsa-mir-320'
p3912
(dp3913
sS'hsa-mir-9'
p3914
g1805
sS'hsa-mir-135b'
p3915
(dp3916
sS'hsa-mir-296'
p3917
g1868
sS'hsa-mir-383'
p3918
g2957
sS'hsa-mir-194'
p3919
g1942
ssg316
(dp3920
S'hsa-mir-340'
p3921
(dp3922
sS'hsa-mir-526b'
p3923
g571
sS'hsa-mir-526a'
p3924
g625
sS'hsa-mir-512'
p3925
(dp3926
sS'hsa-mir-515'
p3927
(dp3928
sS'hsa-mir-377'
p3929
g688
sS'hsa-mir-331'
p3930
g3708
sS'hsa-mir-330'
p3931
g3745
sS'hsa-mir-186'
p3932
g2591
sS'hsa-mir-382'
p3933
g2918
sS'hsa-mir-211'
p3934
g1278
sS'hsa-mir-507'
p3935
(dp3936
sS'hsa-mir-423'
p3937
g843
sS'hsa-mir-500'
p3938
(dp3939
sS'hsa-mir-520d'
p3940
g1692
sS'hsa-mir-520a'
p3941
g1529
sS'hsa-mir-525'
p3942
(dp3943
sS'hsa-mir-520c'
p3944
g1550
sS'hsa-mir-520b'
p3945
g1629
sS'hsa-mir-520e'
p3946
g1671
sS'hsa-mir-136'
p3947
(dp3948
sS'hsa-mir-520g'
p3949
g1749
sS'hsa-mir-325'
p3950
(dp3951
sS'hsa-mir-300'
p3952
g3219
sS'hsa-mir-520h'
p3953
g1822
sS'hsa-mir-520f'
p3954
g1793
sS'hsa-mir-297'
p3955
g1915
ssg318
(dp3956
S'hsa-mir-657'
p3957
g2099
sS'hsa-mir-654'
p3958
g2162
sS'hsa-mir-596'
p3959
(dp3960
sS'hsa-mir-612'
p3961
(dp3962
sS'hsa-mir-611'
p3963
(dp3964
sS'hsa-mir-658'
p3965
g2352
sS'hsa-mir-615'
p3966
(dp3967
sS'hsa-mir-769'
p3968
g1071
sS'hsa-mir-637'
p3969
g3328
sS'hsa-mir-638'
p3970
g3383
sS'hsa-mir-629'
p3971
g3078
sS'hsa-mir-518b'
p3972
g3467
sS'hsa-mir-518c'
p3973
g3519
sS'hsa-mir-557'
p3974
g2519
sS'hsa-mir-575'
p3975
g927
sS'hsa-mir-433'
p3976
g3420
sS'hsa-mir-185'
p3977
g2635
sS'hsa-mir-642'
p3978
(dp3979
sS'hsa-mir-583'
p3980
(dp3981
sS'hsa-mir-486'
p3982
g1157
sS'hsa-mir-662'
p3983
(dp3984
sS'hsa-mir-516a'
p3985
(dp3986
sS'hsa-mir-516b'
p3987
(dp3988
sS'hsa-mir-600'
p3989
(dp3990
sS'hsa-mir-602'
p3991
(dp3992
sS'hsa-mir-208b'
p3993
g2998
sS'hsa-mir-423'
p3994
g810
sS'hsa-mir-608'
p3995
(dp3996
sS'hsa-mir-500'
p3997
(dp3998
sS'hsa-mir-346'
p3999
(dp4000
sS'hsa-mir-324'
p4001
(dp4002
sS'hsa-mir-622'
p4003
g2889
sS'hsa-mir-134'
p4004
(dp4005
sS'hsa-mir-197'
p4006
g1997
ssg320
(dp4007
S'hsa-mir-657'
p4008
g2101
sS'hsa-mir-654'
p4009
g2164
sS'hsa-mir-596'
p4010
(dp4011
sS'hsa-mir-612'
p4012
(dp4013
sS'hsa-mir-611'
p4014
(dp4015
sS'hsa-mir-658'
p4016
g2354
sS'hsa-mir-615'
p4017
(dp4018
sS'hsa-mir-769'
p4019
g1073
sS'hsa-mir-637'
p4020
g3330
sS'hsa-mir-638'
p4021
g3385
sS'hsa-mir-433'
p4022
g3421
sS'hsa-mir-518b'
p4023
g3469
sS'hsa-mir-518c'
p4024
g3521
sS'hsa-mir-557'
p4025
g2521
sS'hsa-mir-575'
p4026
g929
sS'hsa-mir-185'
p4027
g2637
sS'hsa-mir-629'
p4028
g3080
sS'hsa-mir-642'
p4029
(dp4030
sS'hsa-mir-583'
p4031
(dp4032
sS'hsa-mir-486'
p4033
g1159
sS'hsa-mir-662'
p4034
(dp4035
sS'hsa-mir-516a'
p4036
(dp4037
sS'hsa-mir-516b'
p4038
(dp4039
sS'hsa-mir-601'
p4040
g3990
sS'hsa-mir-602'
p4041
(dp4042
sS'hsa-mir-208b'
p4043
g3000
sS'hsa-mir-423'
p4044
g812
sS'hsa-mir-608'
p4045
(dp4046
sS'hsa-mir-500'
p4047
(dp4048
sS'hsa-mir-346'
p4049
(dp4050
sS'hsa-mir-324'
p4051
(dp4052
sS'hsa-mir-622'
p4053
g2891
sS'hsa-mir-134'
p4054
(dp4055
sS'hsa-mir-197'
p4056
g1999
ssg322
(dp4057
S'hsa-mir-657'
p4058
g2103
sS'hsa-mir-654'
p4059
g2166
sS'hsa-mir-596'
p4060
(dp4061
sS'hsa-mir-612'
p4062
(dp4063
sS'hsa-mir-611'
p4064
(dp4065
sS'hsa-mir-658'
p4066
g2356
sS'hsa-mir-615'
p4067
(dp4068
sS'hsa-mir-769'
p4069
g1075
sS'hsa-mir-637'
p4070
g3332
sS'hsa-mir-638'
p4071
g3387
sS'hsa-mir-629'
p4072
g3082
sS'hsa-mir-518b'
p4073
g3471
sS'hsa-mir-518c'
p4074
g3523
sS'hsa-mir-557'
p4075
g2523
sS'hsa-mir-575'
p4076
g931
sS'hsa-mir-433'
p4077
g3422
sS'hsa-mir-185'
p4078
g2639
sS'hsa-mir-642'
p4079
(dp4080
sS'hsa-mir-583'
p4081
(dp4082
sS'hsa-mir-486'
p4083
g1161
sS'hsa-mir-662'
p4084
(dp4085
sS'hsa-mir-516a'
p4086
(dp4087
sS'hsa-mir-516b'
p4088
(dp4089
sS'hsa-mir-601'
p4090
g3992
sS'hsa-mir-600'
p4091
g4042
sS'hsa-mir-208b'
p4092
g3002
sS'hsa-mir-423'
p4093
g816
sS'hsa-mir-608'
p4094
(dp4095
sS'hsa-mir-500'
p4096
(dp4097
sS'hsa-mir-346'
p4098
(dp4099
sS'hsa-mir-324'
p4100
(dp4101
sS'hsa-mir-622'
p4102
g2893
sS'hsa-mir-134'
p4103
(dp4104
sS'hsa-mir-197'
p4105
g2001
ssg324
(dp4106
S'hsa-mir-200b'
p4107
g2423
sS'hsa-mir-18a'
p4108
g3139
sg298
g3767
sS'hsa-let-7a'
p4109
g3540
sg302
g3792
sS'hsa-mir-127'
p4110
g739
sg54
g988
sS'hsa-mir-19a'
p4111
g862
sS'hsa-mir-19b'
p4112
g940
sS'hsa-mir-145'
p4113
(dp4114
sg484
(dp4115
sS'hsa-mir-34a'
p4116
(dp4117
sg20
g636
sg418
(dp4118
sg412
(dp4119
ssg326
(dp4120
S'hsa-mir-135a'
p4121
(dp4122
ssg328
(dp4123
S'hsa-mir-25'
p4124
(dp4125
sS'hsa-mir-106b'
p4126
(dp4127
sS'hsa-mir-338'
p4128
g3121
sg66
g1095
sS'hsa-mir-127'
p4129
g754
sS'hsa-mir-135b'
p4130
(dp4131
sS'hsa-mir-302d'
p4132
g2241
sS'hsa-mir-214'
p4133
g1199
sS'hsa-mir-383'
p4134
g2963
sS'hsa-mir-429'
p4135
g2834
sg444
(dp4136
sS'hsa-mir-153'
p4137
g3908
sS'hsa-mir-200a'
p4138
g2472
sS'hsa-mir-194'
p4139
g1950
sS'hsa-mir-34c'
p4140
(dp4141
sS'hsa-mir-191'
p4142
g2036
sS'hsa-mir-367'
p4143
g1334
sS'hsa-mir-488'
p4144
(dp4145
sS'hsa-mir-30d'
p4146
g2704
ssg330
(dp4147
S'hsa-mir-106a'
p4148
(dp4149
sS'hsa-mir-193b'
p4150
g3237
ssg332
(dp4151
S'hsa-mir-657'
p4152
g2108
sS'hsa-mir-654'
p4153
g2171
sS'hsa-mir-596'
p4154
(dp4155
sS'hsa-mir-612'
p4156
(dp4157
sS'hsa-mir-611'
p4158
(dp4159
sS'hsa-mir-658'
p4160
g2361
sS'hsa-mir-615'
p4161
(dp4162
sS'hsa-mir-769'
p4163
g1080
sS'hsa-mir-637'
p4164
g3336
sS'hsa-mir-638'
p4165
g3391
sS'hsa-mir-629'
p4166
g3086
sS'hsa-mir-518b'
p4167
g3475
sS'hsa-mir-518c'
p4168
g3527
sS'hsa-mir-557'
p4169
g2528
sS'hsa-mir-575'
p4170
g935
sS'hsa-mir-433'
p4171
g3423
sS'hsa-mir-185'
p4172
g2644
sS'hsa-mir-642'
p4173
(dp4174
sS'hsa-mir-583'
p4175
(dp4176
sS'hsa-mir-486'
p4177
g1166
sS'hsa-mir-662'
p4178
(dp4179
sS'hsa-mir-516a'
p4180
(dp4181
sS'hsa-mir-516b'
p4182
(dp4183
sS'hsa-mir-601'
p4184
g3996
sS'hsa-mir-600'
p4185
g4046
sS'hsa-mir-602'
p4186
g4095
sS'hsa-mir-208b'
p4187
g3006
sS'hsa-mir-423'
p4188
g823
sS'hsa-mir-500'
p4189
(dp4190
sS'hsa-mir-346'
p4191
(dp4192
sS'hsa-mir-324'
p4193
(dp4194
sS'hsa-mir-622'
p4195
g2898
sS'hsa-mir-134'
p4196
(dp4197
sS'hsa-mir-197'
p4198
g2005
ssg334
(dp4199
S'hsa-mir-340'
p4200
(dp4201
sS'hsa-mir-526b'
p4202
g559
sS'hsa-mir-526a'
p4203
g613
sS'hsa-mir-520f'
p4204
g1785
sS'hsa-mir-515'
p4205
(dp4206
sS'hsa-mir-377'
p4207
g678
sS'hsa-mir-512'
p4208
(dp4209
sS'hsa-mir-331'
p4210
g3700
sS'hsa-mir-330'
p4211
g3737
sS'hsa-mir-186'
p4212
g2579
sS'hsa-mir-382'
p4213
g2911
sS'hsa-mir-211'
p4214
g1268
sS'hsa-mir-507'
p4215
(dp4216
sS'hsa-mir-423'
p4217
g829
sS'hsa-mir-500'
p4218
(dp4219
sS'hsa-mir-520d'
p4220
g1683
sS'hsa-mir-520a'
p4221
g1517
sS'hsa-mir-520c'
p4222
g1541
sS'hsa-mir-520b'
p4223
g1614
sS'hsa-mir-520e'
p4224
g1661
sS'hsa-mir-136'
p4225
(dp4226
sS'hsa-mir-520g'
p4227
g1742
sS'hsa-mir-523'
p4228
g3943
sS'hsa-mir-300'
p4229
g3211
sS'hsa-mir-520h'
p4230
g1820
sS'hsa-mir-325'
p4231
(dp4232
sS'hsa-mir-297'
p4233
g1907
ssg336
(dp4234
S'hsa-mir-302d'
p4235
g2247
sS'hsa-mir-302c'
p4236
g2257
sS'hsa-mir-302b'
p4237
g2291
sS'hsa-mir-302a'
p4238
g3258
sg160
g2368
sS'hsa-mir-339'
p4239
g3566
sg224
g3101
sS'hsa-mir-30b'
p4240
g1377
sS'hsa-mir-488'
p4241
(dp4242
sS'hsa-mir-429'
p4243
g2837
sS'hsa-mir-153'
p4244
g3913
sg216
g2941
sS'hsa-mir-130a'
p4245
(dp4246
sS'hsa-mir-367'
p4247
g1342
sS'hsa-mir-218'
p4248
g1436
sS'hsa-mir-219'
p4249
g1456
sg466
(dp4250
sg232
g3166
sS'hsa-mir-296'
p4251
g1850
sg238
g3226
sg78
g1191
sS'hsa-mir-215'
p4252
g1210
ssg338
(dp4253
S'hsa-mir-431'
p4254
g3428
ssg340
(dp4255
S'hsa-mir-520c'
p4256
g1546
ssg342
(dp4257
S'hsa-mir-657'
p4258
g2114
sS'hsa-mir-654'
p4259
g2177
sS'hsa-mir-596'
p4260
(dp4261
sS'hsa-mir-612'
p4262
(dp4263
sS'hsa-mir-611'
p4264
(dp4265
sS'hsa-mir-658'
p4266
g2363
sS'hsa-mir-615'
p4267
(dp4268
sS'hsa-mir-769'
p4269
g1086
sS'hsa-mir-637'
p4270
g3342
sS'hsa-mir-638'
p4271
g3397
sS'hsa-mir-629'
p4272
g3092
sS'hsa-mir-518b'
p4273
g3481
sS'hsa-mir-518c'
p4274
g3533
sS'hsa-mir-557'
p4275
g2534
sS'hsa-mir-575'
p4276
g937
sS'hsa-mir-433'
p4277
g3424
sS'hsa-mir-185'
p4278
g2650
sS'hsa-mir-642'
p4279
(dp4280
sS'hsa-mir-583'
p4281
(dp4282
sS'hsa-mir-486'
p4283
g1172
sS'hsa-mir-662'
p4284
(dp4285
sS'hsa-mir-516a'
p4286
(dp4287
sS'hsa-mir-516b'
p4288
(dp4289
sS'hsa-mir-601'
p4290
g4002
sS'hsa-mir-600'
p4291
g4052
sS'hsa-mir-602'
p4292
g4101
sS'hsa-mir-208b'
p4293
g3008
sS'hsa-mir-423'
p4294
g835
sS'hsa-mir-608'
p4295
g4194
sS'hsa-mir-500'
p4296
(dp4297
sS'hsa-mir-346'
p4298
(dp4299
sS'hsa-mir-622'
p4300
g2904
sS'hsa-mir-134'
p4301
(dp4302
sS'hsa-mir-197'
p4303
g2007
ssg344
(dp4304
S'hsa-mir-340'
p4305
(dp4306
sS'hsa-mir-526b'
p4307
g577
sS'hsa-mir-526a'
p4308
g631
sS'hsa-mir-512'
p4309
(dp4310
sS'hsa-mir-515'
p4311
(dp4312
sS'hsa-mir-377'
p4313
g694
sS'hsa-mir-331'
p4314
g3712
sS'hsa-mir-330'
p4315
g3749
sS'hsa-mir-186'
p4316
g2586
sS'hsa-mir-382'
p4317
g2922
sS'hsa-mir-211'
p4318
g1284
sS'hsa-mir-507'
p4319
(dp4320
sS'hsa-mir-423'
p4321
g837
sS'hsa-mir-500'
p4322
(dp4323
sS'hsa-mir-520d'
p4324
g1698
sS'hsa-mir-520a'
p4325
g1535
sS'hsa-mir-525'
p4326
g4232
sS'hsa-mir-520c'
p4327
g1556
sS'hsa-mir-520b'
p4328
g1623
sS'hsa-mir-520e'
p4329
g1677
sS'hsa-mir-136'
p4330
(dp4331
sS'hsa-mir-520g'
p4332
g1755
sS'hsa-mir-523'
p4333
g3951
sS'hsa-mir-300'
p4334
g3222
sS'hsa-mir-520h'
p4335
g1825
sS'hsa-mir-520f'
p4336
g1799
sS'hsa-mir-297'
p4337
g1920
ssg346
(dp4338
S'hsa-mir-25'
p4339
(dp4340
sS'hsa-mir-338'
p4341
g3106
sS'hsa-mir-127'
p4342
g748
sS'hsa-mir-302d'
p4343
g2250
sS'hsa-mir-302c'
p4344
g2264
sS'hsa-mir-302a'
p4345
g3266
sS'hsa-mir-383'
p4346
g2948
sS'hsa-mir-151'
p4347
(dp4348
sS'hsa-mir-153'
p4349
g3916
sS'hsa-mir-215'
p4350
g1220
sS'hsa-mir-488'
p4351
(dp4352
sS'hsa-mir-194'
p4353
g1936
sS'hsa-mir-367'
p4354
g1346
sS'hsa-mir-93'
p4355
g4131
sS'hsa-mir-218'
p4356
g1442
sS'hsa-mir-219'
p4357
g1465
ssg348
(dp4358
S'hsa-mir-10b'
p4359
g2785
sg326
g4122
sS'hsa-mir-192'
p4360
g3246
ssg350
(dp4361
S'hsa-mir-657'
p4362
g2118
sS'hsa-mir-654'
p4363
g2181
sS'hsa-mir-596'
p4364
(dp4365
sS'hsa-mir-612'
p4366
(dp4367
sS'hsa-mir-611'
p4368
(dp4369
sS'hsa-mir-615'
p4370
(dp4371
sS'hsa-mir-769'
p4372
g1090
sS'hsa-mir-637'
p4373
g3345
sS'hsa-mir-638'
p4374
g3400
sS'hsa-mir-518b'
p4375
g3484
sS'hsa-mir-518c'
p4376
g3536
sS'hsa-mir-557'
p4377
g2538
sS'hsa-mir-185'
p4378
g2654
sS'hsa-mir-642'
p4379
(dp4380
sS'hsa-mir-583'
p4381
(dp4382
sS'hsa-mir-486'
p4383
g1176
sS'hsa-mir-662'
p4384
(dp4385
sS'hsa-mir-622'
p4386
g2906
sS'hsa-mir-601'
p4387
g4005
sS'hsa-mir-600'
p4388
g4055
sS'hsa-mir-602'
p4389
g4104
sS'hsa-mir-629'
p4390
g3095
sS'hsa-mir-608'
p4391
g4197
sS'hsa-mir-324'
p4392
g4302
ssg352
(dp4393
S'hsa-mir-132'
p4394
g3823
sS'hsa-mir-497'
p4395
g3787
sS'hsa-mir-28'
p4396
(dp4397
sS'hsa-mir-107'
p4398
g2418
sS'hsa-mir-130a'
p4399
(dp4400
ssg354
(dp4401
S'hsa-mir-301b'
p4402
g3843
sS'hsa-mir-301a'
p4403
g3857
sS'hsa-mir-376a'
p4404
g3887
sg480
(dp4405
sS'hsa-mir-449a'
p4406
g2750
sg30
g668
ssg356
(dp4407
g398
(dp4408
sS'hsa-mir-141'
p4409
(dp4410
sS'hsa-mir-100'
p4411
g2399
sS'hsa-mir-101'
p4412
g2409
sS'hsa-mir-223'
p4413
(dp4414
sS'hsa-mir-200b'
p4415
g2437
sS'hsa-let-7c'
p4416
g2772
sS'hsa-mir-200a'
p4417
g2466
sS'hsa-mir-126'
p4418
g731
sS'hsa-mir-127'
p4419
g750
sS'hsa-let-7i'
p4420
g3668
sS'hsa-mir-19b'
p4421
g961
sS'hsa-mir-34a'
p4422
(dp4423
sS'hsa-mir-30c'
p4424
g2683
sS'hsa-mir-20a'
p4425
g4114
sS'hsa-mir-199a'
p4426
g3872
sS'hsa-let-7a'
p4427
g3557
sS'hsa-mir-132'
p4428
g3825
sS'hsa-mir-125b'
p4429
g3775
sS'hsa-mir-125a'
p4430
g3176
sS'hsa-let-7e'
p4431
g3635
sS'hsa-mir-194'
p4432
g1944
ssg358
(dp4433
S'hsa-mir-125a'
p4434
g3164
ssg360
(dp4435
g70
g1103
sg182
g2550
sg440
(dp4436
sS'hsa-mir-197'
p4437
g2008
sg364
(dp4438
sg438
(dp4439
sg436
(dp4440
ssg362
(dp4441
S'hsa-let-7c'
p4442
g2770
sS'hsa-mir-520b'
p4443
g1606
sS'hsa-let-7f'
p4444
g3029
sS'hsa-let-7d'
p4445
g3610
sS'hsa-mir-10b'
p4446
g2784
sS'hsa-mir-27a'
p4447
(dp4448
sS'hsa-mir-30e'
p4449
g2712
ssg364
(dp4450
S'hsa-mir-181c'
p4451
g1108
sS'hsa-mir-33a'
p4452
g4438
sS'hsa-mir-27b'
p4453
g2555
sS'hsa-mir-197'
p4454
g2010
sS'hsa-mir-216b'
p4455
(dp4456
sS'hsa-mir-216a'
p4457
(dp4458
sS'hsa-mir-220'
p4459
(dp4460
ssg366
(dp4461
S'hsa-mir-195'
p4462
g1923
sS'hsa-mir-29b'
p4463
g990
sS'hsa-mir-128b'
p4464
g3288
ssg368
(dp4465
S'hsa-mir-302d'
p4466
g2215
sS'hsa-mir-302c'
p4467
g2255
sS'hsa-mir-141'
p4468
(dp4469
sS'hsa-mir-200b'
p4470
g2425
sS'hsa-mir-200a'
p4471
g2455
sS'hsa-let-7f'
p4472
g3012
sS'hsa-mir-338'
p4473
g3099
sS'hsa-mir-127'
p4474
g747
sS'hsa-let-7i'
p4475
g3657
sS'hsa-mir-218'
p4476
g1400
sS'hsa-mir-34c'
p4477
(dp4478
sS'hsa-mir-30c'
p4479
g2676
sS'hsa-mir-30d'
p4480
g2693
sS'hsa-mir-488'
p4481
(dp4482
sS'hsa-mir-429'
p4483
g2803
sS'hsa-mir-153'
p4484
g3893
sS'hsa-mir-215'
p4485
g1208
sS'hsa-mir-367'
p4486
g1303
sS'hsa-mir-93'
p4487
g4125
sS'hsa-mir-199a'
p4488
g3864
sS'hsa-mir-219'
p4489
g1454
sS'hsa-mir-151'
p4490
(dp4491
sS'hsa-mir-135b'
p4492
g4340
sS'hsa-mir-106b'
p4493
(dp4494
sS'hsa-mir-214'
p4495
g1193
sS'hsa-mir-383'
p4496
g2939
sS'hsa-mir-194'
p4497
g1929
sS'hsa-mir-191'
p4498
g2013
ssg370
(dp4499
S'hsa-let-7a'
p4500
g3560
sS'hsa-mir-17'
p4501
g3798
ssg372
(dp4502
g128
g1924
sg456
(dp4503
ssg374
(dp4504
S'hsa-mir-657'
p4505
g2060
sS'hsa-mir-654'
p4506
g2123
sS'hsa-mir-612'
p4507
(dp4508
sS'hsa-mir-611'
p4509
(dp4510
sS'hsa-mir-658'
p4511
g2322
sS'hsa-mir-615'
p4512
(dp4513
sS'hsa-mir-769'
p4514
g1032
sS'hsa-mir-637'
p4515
g3295
sS'hsa-mir-638'
p4516
g3351
sS'hsa-mir-629'
p4517
g3044
sS'hsa-mir-518b'
p4518
g3437
sS'hsa-mir-518c'
p4519
g3490
sS'hsa-mir-557'
p4520
g2483
sS'hsa-mir-575'
p4521
g890
sS'hsa-mir-433'
p4522
g3411
sS'hsa-mir-185'
p4523
g2600
sS'hsa-mir-642'
p4524
(dp4525
sS'hsa-mir-583'
p4526
(dp4527
sS'hsa-mir-486'
p4528
g1119
sS'hsa-mir-662'
p4529
(dp4530
sS'hsa-mir-516a'
p4531
(dp4532
sS'hsa-mir-516b'
p4533
(dp4534
sS'hsa-mir-601'
p4535
g3960
sS'hsa-mir-600'
p4536
g4011
sS'hsa-mir-602'
p4537
g4061
sS'hsa-mir-208b'
p4538
g2971
sS'hsa-mir-423'
p4539
g765
sS'hsa-mir-608'
p4540
g4155
sS'hsa-mir-500'
p4541
(dp4542
sS'hsa-mir-346'
p4543
(dp4544
sS'hsa-mir-324'
p4545
g4261
sS'hsa-mir-622'
p4546
g2853
sS'hsa-mir-134'
p4547
g4365
sS'hsa-mir-197'
p4548
g1961
ssg376
(dp4549
S'hsa-mir-657'
p4550
g2062
sS'hsa-mir-654'
p4551
g2125
sS'hsa-mir-596'
p4552
g4508
sS'hsa-mir-611'
p4553
(dp4554
sg158
g2324
sS'hsa-mir-615'
p4555
(dp4556
sS'hsa-mir-769'
p4557
g1034
sS'hsa-mir-637'
p4558
g3297
sS'hsa-mir-638'
p4559
g3353
sg266
g3412
sS'hsa-mir-518b'
p4560
g3439
sS'hsa-mir-518c'
p4561
g3492
sS'hsa-mir-557'
p4562
g2485
sg48
g892
sS'hsa-mir-185'
p4563
g2602
sS'hsa-mir-629'
p4564
g3046
sS'hsa-mir-642'
p4565
(dp4566
sS'hsa-mir-583'
p4567
(dp4568
sS'hsa-mir-486'
p4569
g1121
sS'hsa-mir-662'
p4570
(dp4571
sS'hsa-mir-516a'
p4572
(dp4573
sS'hsa-mir-516b'
p4574
(dp4575
sS'hsa-mir-601'
p4576
g3962
sS'hsa-mir-600'
p4577
g4013
sS'hsa-mir-602'
p4578
g4063
sg218
g2973
sS'hsa-mir-423'
p4579
g767
sS'hsa-mir-608'
p4580
g4157
sS'hsa-mir-500'
p4581
(dp4582
sg468
(dp4583
sS'hsa-mir-324'
p4584
g4263
sS'hsa-mir-622'
p4585
g2855
sg350
g4367
sg132
g1963
ssg378
(dp4586
S'hsa-mir-652'
p4587
g2184
sS'hsa-mir-550'
p4588
g2542
sS'hsa-mir-539'
p4589
g3753
sS'hsa-mir-431'
p4590
g3427
ssg380
(dp4591
S'hsa-mir-657'
p4592
g2064
sS'hsa-mir-654'
p4593
g2127
sS'hsa-mir-596'
p4594
g4510
sS'hsa-mir-612'
p4595
g4554
sS'hsa-mir-658'
p4596
g2326
sS'hsa-mir-615'
p4597
(dp4598
sS'hsa-mir-769'
p4599
g1036
sS'hsa-mir-637'
p4600
g3299
sS'hsa-mir-638'
p4601
g3355
sS'hsa-mir-629'
p4602
g3048
sS'hsa-mir-518b'
p4603
g3441
sS'hsa-mir-518c'
p4604
g3494
sS'hsa-mir-557'
p4605
g2487
sS'hsa-mir-575'
p4606
g894
sS'hsa-mir-433'
p4607
g3413
sS'hsa-mir-185'
p4608
g2604
sS'hsa-mir-642'
p4609
(dp4610
sS'hsa-mir-583'
p4611
(dp4612
sS'hsa-mir-486'
p4613
g1123
sS'hsa-mir-662'
p4614
(dp4615
sS'hsa-mir-516a'
p4616
(dp4617
sS'hsa-mir-516b'
p4618
(dp4619
sS'hsa-mir-601'
p4620
g3964
sS'hsa-mir-600'
p4621
g4015
sS'hsa-mir-602'
p4622
g4065
sS'hsa-mir-208b'
p4623
g2975
sS'hsa-mir-423'
p4624
g769
sS'hsa-mir-608'
p4625
g4159
sS'hsa-mir-500'
p4626
(dp4627
sS'hsa-mir-346'
p4628
(dp4629
sS'hsa-mir-324'
p4630
g4265
sS'hsa-mir-622'
p4631
g2857
sS'hsa-mir-134'
p4632
g4369
sS'hsa-mir-197'
p4633
g1965
ssg382
(dp4634
S'hsa-mir-452'
p4635
(dp4636
sg208
g2800
sS'hsa-mir-148a'
p4637
g4397
sS'hsa-mir-130a'
p4638
(dp4639
ssg384
(dp4640
g74
g1183
sg446
(dp4641
ssg386
(dp4642
S'hsa-mir-106b'
p4643
(dp4644
ssg388
(dp4645
S'hsa-mir-657'
p4646
g2068
sS'hsa-mir-654'
p4647
g2131
sS'hsa-mir-596'
p4648
g4513
sS'hsa-mir-612'
p4649
g4556
sS'hsa-mir-611'
p4650
g4598
sS'hsa-mir-658'
p4651
g2328
sS'hsa-mir-769'
p4652
g1040
sS'hsa-mir-637'
p4653
g3302
sS'hsa-mir-638'
p4654
g3358
sS'hsa-mir-629'
p4655
g3051
sS'hsa-mir-518b'
p4656
g3444
sS'hsa-mir-518c'
p4657
g3497
sS'hsa-mir-557'
p4658
g2490
sS'hsa-mir-575'
p4659
g896
sS'hsa-mir-433'
p4660
g3414
sS'hsa-mir-185'
p4661
g2607
sS'hsa-mir-642'
p4662
(dp4663
sS'hsa-mir-583'
p4664
(dp4665
sS'hsa-mir-486'
p4666
g1127
sS'hsa-mir-662'
p4667
(dp4668
sS'hsa-mir-516a'
p4669
(dp4670
sS'hsa-mir-516b'
p4671
(dp4672
sS'hsa-mir-601'
p4673
g3967
sS'hsa-mir-600'
p4674
g4018
sS'hsa-mir-602'
p4675
g4068
sS'hsa-mir-208b'
p4676
g2977
sS'hsa-mir-423'
p4677
g771
sS'hsa-mir-608'
p4678
g4162
sS'hsa-mir-500'
p4679
(dp4680
sS'hsa-mir-346'
p4681
(dp4682
sS'hsa-mir-324'
p4683
g4268
sS'hsa-mir-622'
p4684
g2860
sS'hsa-mir-134'
p4685
g4371
sS'hsa-mir-197'
p4686
g1967
ssg390
(dp4687
S'hsa-mir-129'
p4688
g849
sS'hsa-mir-27a'
p4689
(dp4690
ssg392
(dp4691
S'hsa-mir-301b'
p4692
g3836
sS'hsa-mir-376a'
p4693
g3882
sS'hsa-mir-188'
p4694
g2667
sS'hsa-mir-301a'
p4695
g3850
sS'hsa-mir-409'
p4696
g1845
ssg394
(dp4697
S'hsa-mir-657'
p4698
g2088
sS'hsa-mir-654'
p4699
g2151
sS'hsa-mir-596'
p4700
g4525
sS'hsa-mir-612'
p4701
g4566
sS'hsa-mir-611'
p4702
g4610
sS'hsa-mir-658'
p4703
g2343
sS'hsa-mir-615'
p4704
g4663
sS'hsa-mir-637'
p4705
g3317
sS'hsa-mir-638'
p4706
g3372
sS'hsa-mir-629'
p4707
g3067
sS'hsa-mir-518b'
p4708
g3456
sS'hsa-mir-518c'
p4709
g3508
sS'hsa-mir-557'
p4710
g2508
sS'hsa-mir-575'
p4711
g914
sS'hsa-mir-433'
p4712
g3417
sS'hsa-mir-185'
p4713
g2624
sS'hsa-mir-769'
p4714
g1059
sS'hsa-mir-583'
p4715
(dp4716
sS'hsa-mir-486'
p4717
g1147
sS'hsa-mir-662'
p4718
(dp4719
sS'hsa-mir-516a'
p4720
(dp4721
sS'hsa-mir-516b'
p4722
(dp4723
sS'hsa-mir-601'
p4724
g3979
sS'hsa-mir-600'
p4725
g4030
sS'hsa-mir-602'
p4726
g4080
sS'hsa-mir-208b'
p4727
g2990
sS'hsa-mir-423'
p4728
g800
sS'hsa-mir-608'
p4729
g4174
sS'hsa-mir-500'
p4730
(dp4731
sS'hsa-mir-346'
p4732
(dp4733
sS'hsa-mir-324'
p4734
g4280
sS'hsa-mir-622'
p4735
g2878
sS'hsa-mir-134'
p4736
g4380
sS'hsa-mir-197'
p4737
g1988
ssg396
(dp4738
g56
g1008
ssg398
(dp4739
S'hsa-mir-145'
p4740
g4408
sS'hsa-mir-126'
p4741
g735
ssg400
(dp4742
g150
g2208
ssg402
(dp4743
g168
g2439
sS'hsa-mir-25'
p4744
g4469
sg172
g2469
sg40
g752
sS'hsa-mir-429'
p4745
g2811
sg356
g4410
sg434
(dp4746
ssg404
(dp4747
S'hsa-mir-516a'
p4748
(dp4749
sS'hsa-mir-516b'
p4750
(dp4751
sS'hsa-mir-453'
p4752
(dp4753
sS'hsa-mir-149'
p4754
(dp4755
ssg406
(dp4756
S'hsa-mir-340'
p4757
(dp4758
sS'hsa-mir-526b'
p4759
g537
sS'hsa-mir-526a'
p4760
g591
sS'hsa-mir-520f'
p4761
g1764
sS'hsa-mir-515'
p4762
(dp4763
sS'hsa-mir-377'
p4764
g680
sS'hsa-mir-331'
p4765
g3686
sS'hsa-mir-330'
p4766
g3724
sS'hsa-mir-186'
p4767
g2566
sS'hsa-mir-382'
p4768
g2931
sS'hsa-mir-211'
p4769
g1294
sS'hsa-mir-507'
p4770
(dp4771
sS'hsa-mir-423'
p4772
g789
sS'hsa-mir-500'
p4773
(dp4774
sS'hsa-mir-520d'
p4775
g1685
sS'hsa-mir-520a'
p4776
g1499
sS'hsa-mir-525'
p4777
g4209
sS'hsa-mir-520c'
p4778
g1566
sS'hsa-mir-520b'
p4779
g1588
sS'hsa-mir-520e'
p4780
g1642
sS'hsa-mir-136'
p4781
(dp4782
sS'hsa-mir-520g'
p4783
g1724
sS'hsa-mir-523'
p4784
g3926
sS'hsa-mir-300'
p4785
g3195
sS'hsa-mir-520h'
p4786
g1812
sS'hsa-mir-325'
p4787
g4310
sS'hsa-mir-297'
p4788
g1889
ssg408
(dp4789
S'hsa-mir-340'
p4790
(dp4791
sS'hsa-mir-526b'
p4792
g533
sS'hsa-mir-526a'
p4793
g587
sS'hsa-mir-520f'
p4794
g1766
sS'hsa-mir-377'
p4795
g708
sS'hsa-mir-512'
p4796
g4763
sS'hsa-mir-331'
p4797
g3683
sS'hsa-mir-330'
p4798
g3721
sS'hsa-mir-186'
p4799
g2568
sS'hsa-mir-382'
p4800
g2936
sS'hsa-mir-211'
p4801
g1300
sS'hsa-mir-507'
p4802
(dp4803
sS'hsa-mir-423'
p4804
g783
sS'hsa-mir-500'
p4805
(dp4806
sS'hsa-mir-520d'
p4807
g1712
sS'hsa-mir-520a'
p4808
g1496
sS'hsa-mir-525'
p4809
g4206
sS'hsa-mir-520c'
p4810
g1572
sS'hsa-mir-520b'
p4811
g1586
sS'hsa-mir-520e'
p4812
g1639
sS'hsa-mir-136'
p4813
(dp4814
sS'hsa-mir-520g'
p4815
g1721
sS'hsa-mir-523'
p4816
g3928
sS'hsa-mir-300'
p4817
g3192
sS'hsa-mir-520h'
p4818
g1811
sS'hsa-mir-325'
p4819
g4312
sS'hsa-mir-297'
p4820
g1886
ssg410
(dp4821
S'hsa-let-7c'
p4822
g2779
sS'hsa-mir-221'
p4823
(dp4824
ssg412
(dp4825
S'hsa-mir-20a'
p4826
g4119
sS'hsa-let-7i'
p4827
g3675
sS'hsa-mir-155'
p4828
(dp4829
sg410
g4824
sS'hsa-let-7e'
p4830
g3643
ssg414
(dp4831
g452
(dp4832
sg454
(dp4833
sg422
(dp4834
sg404
g4755
ssg416
(dp4835
g44
g857
sg420
(dp4836
sg300
g3785
sg264
g3404
ssg418
(dp4837
S'hsa-mir-20a'
p4838
g4118
sS'hsa-mir-106a'
p4839
(dp4840
sS'hsa-mir-145'
p4841
g4414
sS'hsa-let-7e'
p4842
g3641
ssg420
(dp4843
g416
g4836
sS'hsa-mir-497'
p4844
g3783
sg382
g4636
sS'hsa-mir-130a'
p4845
(dp4846
sS'hsa-mir-432'
p4847
g3406
ssg422
(dp4848
S'hsa-mir-510'
p4849
g4753
sS'hsa-mir-516a'
p4850
(dp4851
sS'hsa-mir-516b'
p4852
(dp4853
sS'hsa-mir-149'
p4854
g4834
ssg424
(dp4855
S'hsa-mir-575'
p4856
g910
sS'hsa-mir-660'
p4857
(dp4858
ssg426
(dp4859
S'hsa-mir-25'
p4860
g4482
sS'hsa-mir-302d'
p4861
g2232
sS'hsa-mir-302c'
p4862
g2261
sS'hsa-mir-302b'
p4863
g2299
sS'hsa-mir-302a'
p4864
g3263
sS'hsa-mir-103'
p4865
g2385
sS'hsa-mir-339'
p4866
g3568
sS'hsa-mir-338'
p4867
g3103
sS'hsa-mir-30b'
p4868
g1380
sS'hsa-mir-30d'
p4869
g2696
sS'hsa-mir-151'
p4870
(dp4871
sS'hsa-mir-153'
p4872
g3901
sS'hsa-mir-383'
p4873
g2945
sS'hsa-mir-367'
p4874
g1325
sS'hsa-mir-93'
p4875
g4145
sS'hsa-mir-218'
p4876
g1424
sS'hsa-mir-219'
p4877
g1461
sS'hsa-mir-429'
p4878
g2824
sS'hsa-mir-320'
p4879
g4242
sS'hsa-mir-296'
p4880
g1856
sS'hsa-mir-135b'
p4881
g4352
sS'hsa-mir-215'
p4882
g1216
sS'hsa-mir-194'
p4883
g1934
ssg428
(dp4884
S'hsa-mir-18b'
p4885
g3127
sS'hsa-mir-18a'
p4886
g3143
sS'hsa-mir-7'
p4887
g1097
sS'hsa-mir-9'
p4888
g1806
sS'hsa-mir-19a'
p4889
g864
sS'hsa-mir-34a'
p4890
(dp4891
sS'hsa-mir-92b'
p4892
g1363
ssg430
(dp4893
S'hsa-mir-20a'
p4894
g4117
sS'hsa-let-7c'
p4895
g2774
sS'hsa-mir-18a'
p4896
g3160
sS'hsa-let-7f'
p4897
g3033
sS'hsa-mir-17'
p4898
g3809
sS'hsa-let-7d'
p4899
g3613
sS'hsa-let-7e'
p4900
g3637
sS'hsa-let-7i'
p4901
g3670
sS'hsa-mir-19a'
p4902
g880
sS'hsa-mir-19b'
p4903
g965
sS'hsa-mir-199a'
p4904
g3874
sS'hsa-mir-20b'
p4905
g4891
sS'hsa-mir-145'
p4906
g4423
sS'hsa-mir-34b'
p4907
(dp4908
sS'hsa-mir-34c'
p4909
(dp4910
sS'hsa-mir-126'
p4911
g737
ssg432
(dp4912
S'hsa-mir-520b'
p4913
g1598
sS'hsa-let-7f'
p4914
g3035
sS'hsa-let-7d'
p4915
g3615
sS'hsa-mir-10b'
p4916
g2794
sS'hsa-mir-191'
p4917
g2031
sS'hsa-mir-27a'
p4918
(dp4919
sS'hsa-mir-34a'
p4920
g4908
sS'hsa-mir-34c'
p4921
(dp4922
sS'hsa-mir-29b'
p4923
g1000
sS'hsa-mir-30e'
p4924
g2716
sS'hsa-mir-218'
p4925
g1417
ssg434
(dp4926
g368
g4478
sg430
g4910
sg432
g4922
sg402
g4746
sg328
g4141
sg164
g2412
sg134
g2033
ssg436
(dp4927
S'hsa-mir-181c'
p4928
g1112
sS'hsa-mir-33a'
p4929
g4440
sS'hsa-mir-27b'
p4930
g2559
sS'hsa-mir-197'
p4931
g1974
sS'hsa-mir-216b'
p4932
(dp4933
sS'hsa-mir-216a'
p4934
(dp4935
sS'hsa-mir-33b'
p4936
g4460
ssg438
(dp4937
S'hsa-mir-181c'
p4938
g1110
sS'hsa-mir-27b'
p4939
g2557
sS'hsa-mir-216b'
p4940
(dp4941
sS'hsa-mir-197'
p4942
g1984
sS'hsa-mir-33b'
p4943
g4458
sS'hsa-mir-33a'
p4944
g4439
sS'hsa-mir-220'
p4945
g4935
ssg440
(dp4946
S'hsa-mir-181c'
p4947
g1105
sS'hsa-mir-33a'
p4948
g4436
sS'hsa-mir-27b'
p4949
g2553
sS'hsa-mir-197'
p4950
g1986
sS'hsa-mir-33b'
p4951
g4456
sS'hsa-mir-216a'
p4952
g4941
sS'hsa-mir-220'
p4953
g4933
ssg442
(dp4954
S'hsa-mir-657'
p4955
g2090
sS'hsa-mir-654'
p4956
g2153
sS'hsa-mir-596'
p4957
g4527
sS'hsa-mir-612'
p4958
g4568
sS'hsa-mir-611'
p4959
g4612
sS'hsa-mir-658'
p4960
g2345
sS'hsa-mir-615'
p4961
g4665
sS'hsa-mir-769'
p4962
g1061
sS'hsa-mir-637'
p4963
g3319
sS'hsa-mir-638'
p4964
g3374
sS'hsa-mir-629'
p4965
g3069
sS'hsa-mir-518b'
p4966
g3458
sS'hsa-mir-518c'
p4967
g3510
sS'hsa-mir-557'
p4968
g2510
sS'hsa-mir-575'
p4969
g916
sS'hsa-mir-433'
p4970
g3418
sS'hsa-mir-185'
p4971
g2626
sS'hsa-mir-642'
p4972
g4716
sS'hsa-mir-486'
p4973
g1149
sS'hsa-mir-662'
p4974
(dp4975
sS'hsa-mir-516a'
p4976
(dp4977
sS'hsa-mir-516b'
p4978
(dp4979
sS'hsa-mir-601'
p4980
g3981
sS'hsa-mir-600'
p4981
g4032
sS'hsa-mir-602'
p4982
g4082
sS'hsa-mir-208b'
p4983
g2992
sS'hsa-mir-423'
p4984
g802
sS'hsa-mir-608'
p4985
g4176
sS'hsa-mir-500'
p4986
(dp4987
sS'hsa-mir-346'
p4988
(dp4989
sS'hsa-mir-324'
p4990
g4282
sS'hsa-mir-622'
p4991
g2880
sS'hsa-mir-134'
p4992
g4382
sS'hsa-mir-197'
p4993
g1990
ssg444
(dp4994
S'hsa-mir-520b'
p4995
g1594
sS'hsa-mir-497'
p4996
g3780
sS'hsa-mir-98'
p4997
g4448
sS'hsa-mir-10b'
p4998
g2789
sS'hsa-mir-129'
p4999
g853
sS'hsa-mir-106b'
p5000
(dp5001
sS'hsa-mir-148b'
p5002
g4690
sS'hsa-mir-34b'
p5003
g4919
sS'hsa-mir-340'
p5004
(dp5005
sS'hsa-mir-93'
p5006
g4136
ssg446
(dp5007
S'hsa-mir-484'
p5008
g1181
sg384
g4641
sS'hsa-mir-575'
p5009
g920
ssg448
(dp5010
S'hsa-mir-657'
p5011
g2093
sS'hsa-mir-654'
p5012
g2156
sS'hsa-mir-596'
p5013
g4530
sS'hsa-mir-612'
p5014
g4571
sS'hsa-mir-611'
p5015
g4615
sS'hsa-mir-658'
p5016
g2348
sS'hsa-mir-615'
p5017
g4668
sS'hsa-mir-769'
p5018
g1065
sS'hsa-mir-637'
p5019
g3322
sS'hsa-mir-638'
p5020
g3377
sS'hsa-mir-629'
p5021
g3072
sS'hsa-mir-518b'
p5022
g3461
sS'hsa-mir-518c'
p5023
g3513
sS'hsa-mir-557'
p5024
g2513
sS'hsa-mir-575'
p5025
g922
sS'hsa-mir-433'
p5026
g3419
sS'hsa-mir-185'
p5027
g2629
sS'hsa-mir-642'
p5028
g4719
sS'hsa-mir-583'
p5029
g4975
sS'hsa-mir-486'
p5030
g1151
sS'hsa-mir-516a'
p5031
(dp5032
sS'hsa-mir-516b'
p5033
(dp5034
sS'hsa-mir-601'
p5035
g3984
sS'hsa-mir-600'
p5036
g4035
sS'hsa-mir-602'
p5037
g4085
sS'hsa-mir-208b'
p5038
g2995
sS'hsa-mir-423'
p5039
g806
sS'hsa-mir-608'
p5040
g4179
sS'hsa-mir-500'
p5041
(dp5042
sS'hsa-mir-346'
p5043
(dp5044
sS'hsa-mir-324'
p5045
g4285
sS'hsa-mir-622'
p5046
g2883
sS'hsa-mir-134'
p5047
g4385
sS'hsa-mir-197'
p5048
g1993
ssg450
(dp5049
g424
g4858
sS'hsa-mir-575'
p5050
g923
ssg452
(dp5051
S'hsa-mir-657'
p5052
g2095
sS'hsa-mir-654'
p5053
g2158
sS'hsa-mir-596'
p5054
g4532
sS'hsa-mir-612'
p5055
g4573
sS'hsa-mir-611'
p5056
g4617
sS'hsa-mir-615'
p5057
g4670
sS'hsa-mir-769'
p5058
g1067
sS'hsa-mir-637'
p5059
g3324
sS'hsa-mir-638'
p5060
g3379
sS'hsa-mir-510'
p5061
g4749
sg414
g4832
sS'hsa-mir-518b'
p5062
g3463
sS'hsa-mir-518c'
p5063
g3515
sS'hsa-mir-557'
p5064
g2515
sS'hsa-mir-453'
p5065
g4851
sS'hsa-mir-185'
p5066
g2631
sS'hsa-mir-642'
p5067
g4721
sS'hsa-mir-583'
p5068
g4977
sS'hsa-mir-486'
p5069
g1153
sS'hsa-mir-662'
p5070
g5032
sS'hsa-mir-622'
p5071
g2885
sS'hsa-mir-516b'
p5072
(dp5073
sS'hsa-mir-601'
p5074
g3986
sS'hsa-mir-600'
p5075
g4037
sS'hsa-mir-602'
p5076
g4087
sS'hsa-mir-629'
p5077
g3074
sS'hsa-mir-608'
p5078
g4181
sS'hsa-mir-324'
p5079
g4287
ssg454
(dp5080
S'hsa-mir-657'
p5081
g2097
sS'hsa-mir-654'
p5082
g2160
sS'hsa-mir-596'
p5083
g4534
sS'hsa-mir-612'
p5084
g4575
sS'hsa-mir-611'
p5085
g4619
sS'hsa-mir-615'
p5086
g4672
sS'hsa-mir-769'
p5087
g1069
sS'hsa-mir-637'
p5088
g3326
sS'hsa-mir-638'
p5089
g3381
sS'hsa-mir-510'
p5090
g4751
sS'hsa-mir-149'
p5091
g4833
sS'hsa-mir-518b'
p5092
g3465
sS'hsa-mir-518c'
p5093
g3517
sS'hsa-mir-557'
p5094
g2517
sS'hsa-mir-453'
p5095
g4853
sS'hsa-mir-185'
p5096
g2633
sS'hsa-mir-642'
p5097
g4723
sS'hsa-mir-583'
p5098
g4979
sS'hsa-mir-486'
p5099
g1155
sS'hsa-mir-662'
p5100
g5034
sS'hsa-mir-516a'
p5101
g5073
sS'hsa-mir-601'
p5102
g3988
sS'hsa-mir-600'
p5103
g4039
sS'hsa-mir-602'
p5104
g4089
sS'hsa-mir-629'
p5105
g3076
sS'hsa-mir-608'
p5106
g4183
sS'hsa-mir-324'
p5107
g4289
sS'hsa-mir-622'
p5108
g2887
ssg456
(dp5109
S'hsa-mir-320'
p5110
g4246
sS'hsa-mir-22'
p5111
g4503
sS'hsa-mir-335'
p5112
g3650
sS'hsa-mir-452'
p5113
g4846
sS'hsa-mir-28'
p5114
g4639
sS'hsa-mir-148a'
p5115
g4400
sS'hsa-mir-100'
p5116
g2401
ssg458
(dp5117
S'hsa-mir-494'
p5118
g2201
sS'hsa-mir-423'
p5119
g814
sS'hsa-mir-365'
p5120
g718
sS'hsa-mir-499'
p5121
g2193
sS'hsa-mir-500'
p5122
(dp5123
ssg460
(dp5124
S'hsa-mir-526b'
p5125
g549
sS'hsa-mir-526a'
p5126
g603
sS'hsa-mir-520f'
p5127
g1778
sS'hsa-mir-515'
p5128
g4803
sS'hsa-mir-377'
p5129
g704
sS'hsa-mir-512'
p5130
g4771
sS'hsa-mir-331'
p5131
g3693
sS'hsa-mir-330'
p5132
g3730
sS'hsa-mir-186'
p5133
g2564
sS'hsa-mir-382'
p5134
g2933
sS'hsa-mir-211'
p5135
g1296
sS'hsa-mir-340'
p5136
(dp5137
sS'hsa-mir-423'
p5138
g818
sS'hsa-mir-500'
p5139
(dp5140
sS'hsa-mir-520d'
p5141
g1708
sS'hsa-mir-520a'
p5142
g1510
sS'hsa-mir-525'
p5143
g4216
sS'hsa-mir-520c'
p5144
g1568
sS'hsa-mir-520b'
p5145
g1611
sS'hsa-mir-520e'
p5146
g1653
sS'hsa-mir-136'
p5147
(dp5148
sS'hsa-mir-520g'
p5149
g1735
sS'hsa-mir-523'
p5150
g3936
sS'hsa-mir-300'
p5151
g3204
sS'hsa-mir-520h'
p5152
g1818
sS'hsa-mir-325'
p5153
g4320
sS'hsa-mir-297'
p5154
g1900
ssg462
(dp5155
S'hsa-mir-657'
p5156
g2110
sS'hsa-mir-654'
p5157
g2173
sS'hsa-mir-596'
p5158
g4542
sS'hsa-mir-612'
p5159
g4582
sS'hsa-mir-611'
p5160
g4627
sS'hsa-mir-615'
p5161
g4680
sS'hsa-mir-769'
p5162
g1082
sS'hsa-mir-526b'
p5163
g553
sS'hsa-mir-526a'
p5164
g607
sS'hsa-mir-637'
p5165
g3338
sS'hsa-mir-638'
p5166
g3393
sS'hsa-mir-520f'
p5167
g1781
sS'hsa-mir-515'
p5168
g4806
sS'hsa-mir-423'
p5169
g825
sS'hsa-mir-518b'
p5170
g3477
sS'hsa-mir-518c'
p5171
g3529
sS'hsa-mir-512'
p5172
g4774
sS'hsa-mir-557'
p5173
g2530
sS'hsa-mir-331'
p5174
g3696
sS'hsa-mir-330'
p5175
g3733
sS'hsa-mir-494'
p5176
g2199
sS'hsa-mir-185'
p5177
g2646
sS'hsa-mir-642'
p5178
g4731
sS'hsa-mir-583'
p5179
g4987
sS'hsa-mir-486'
p5180
g1168
sS'hsa-mir-662'
p5181
g5042
sS'hsa-mir-622'
p5182
g2900
sS'hsa-mir-601'
p5183
g3998
sS'hsa-mir-600'
p5184
g4048
sS'hsa-mir-130b'
p5185
g5123
sS'hsa-mir-602'
p5186
g4097
sS'hsa-mir-507'
p5187
g5140
sS'hsa-mir-629'
p5188
g3088
sS'hsa-mir-365'
p5189
g716
sS'hsa-mir-608'
p5190
g4190
sS'hsa-mir-520a'
p5191
g1513
sS'hsa-mir-525'
p5192
g4219
sS'hsa-mir-520e'
p5193
g1656
sS'hsa-mir-136'
p5194
(dp5195
sS'hsa-mir-324'
p5196
g4297
sS'hsa-mir-325'
p5197
g4323
sS'hsa-mir-300'
p5198
g3207
sS'hsa-mir-520h'
p5199
g1819
sS'hsa-mir-523'
p5200
g3939
sS'hsa-mir-297'
p5201
g1903
sS'hsa-mir-520g'
p5202
g1738
ssg464
(dp5203
S'hsa-mir-379'
p5204
g504
sS'hsa-mir-495'
p5205
g2212
sS'hsa-mir-362'
p5206
g1372
sS'hsa-mir-487b'
p5207
(dp5208
ssg466
(dp5209
S'hsa-mir-25'
p5210
g4491
sS'hsa-mir-302d'
p5211
g2234
sS'hsa-mir-302c'
p5212
g2273
sS'hsa-mir-302b'
p5213
g2308
sS'hsa-mir-302a'
p5214
g3271
sS'hsa-mir-103'
p5215
g2377
sS'hsa-mir-100'
p5216
g2397
sS'hsa-mir-200a'
p5217
g2464
sS'hsa-mir-338'
p5218
g3113
sg284
g3646
sS'hsa-mir-488'
p5219
g4871
sS'hsa-mir-429'
p5220
g2827
sS'hsa-mir-153'
p5221
g3904
sS'hsa-mir-383'
p5222
g2955
sS'hsa-mir-367'
p5223
g1329
sS'hsa-mir-218'
p5224
g1426
sS'hsa-mir-219'
p5225
g1475
sS'hsa-mir-320'
p5226
g4250
sg234
g3181
sS'hsa-mir-135b'
p5227
g4348
sS'hsa-mir-215'
p5228
g1230
sS'hsa-mir-194'
p5229
g1940
ssg468
(dp5230
S'hsa-mir-657'
p5231
g2112
sS'hsa-mir-654'
p5232
g2175
sS'hsa-mir-596'
p5233
g4544
sS'hsa-mir-612'
p5234
g4583
sS'hsa-mir-611'
p5235
g4629
sS'hsa-mir-615'
p5236
g4682
sS'hsa-mir-769'
p5237
g1084
sS'hsa-mir-637'
p5238
g3340
sS'hsa-mir-638'
p5239
g3395
sS'hsa-mir-518b'
p5240
g3479
sS'hsa-mir-518c'
p5241
g3531
sS'hsa-mir-557'
p5242
g2532
sS'hsa-mir-185'
p5243
g2648
sS'hsa-mir-642'
p5244
g4733
sS'hsa-mir-583'
p5245
g4989
sS'hsa-mir-486'
p5246
g1170
sS'hsa-mir-662'
p5247
g5044
sS'hsa-mir-622'
p5248
g2902
sS'hsa-mir-601'
p5249
g4000
sS'hsa-mir-600'
p5250
g4050
sS'hsa-mir-602'
p5251
g4099
sS'hsa-mir-629'
p5252
g3090
sS'hsa-mir-608'
p5253
g4192
sS'hsa-mir-324'
p5254
g4299
ssg470
(dp5255
S'hsa-mir-497'
p5256
g3778
sS'hsa-mir-526b'
p5257
g527
sS'hsa-mir-526a'
p5258
g582
sS'hsa-mir-520f'
p5259
g1760
sS'hsa-mir-515'
p5260
g4791
sS'hsa-mir-512'
p5261
g4758
sS'hsa-mir-129'
p5262
g851
sS'hsa-mir-331'
p5263
g3678
sS'hsa-mir-330'
p5264
g3716
sS'hsa-mir-27a'
p5265
g5005
sS'hsa-mir-186'
p5266
g2576
sS'hsa-mir-421'
p5267
g3285
sS'hsa-mir-507'
p5268
g5137
sS'hsa-mir-520a'
p5269
g1490
sS'hsa-mir-525'
p5270
g4201
sS'hsa-mir-520b'
p5271
g1579
sS'hsa-mir-520e'
p5272
g1665
sS'hsa-mir-136'
p5273
(dp5274
sS'hsa-mir-520g'
p5275
g1715
sS'hsa-mir-523'
p5276
g3922
sS'hsa-mir-300'
p5277
g3187
sS'hsa-mir-520h'
p5278
g1810
sS'hsa-mir-325'
p5279
g4306
sg240
g3235
sS'hsa-mir-297'
p5280
g1881
ssg472
(dp5281
S'hsa-mir-340'
p5282
g5274
sS'hsa-mir-526b'
p5283
g567
sS'hsa-mir-526a'
p5284
g621
sS'hsa-mir-520f'
p5285
g1790
sS'hsa-mir-515'
p5286
g4814
sS'hsa-mir-377'
p5287
g684
sS'hsa-mir-512'
p5288
g4782
sS'hsa-mir-331'
p5289
g3705
sS'hsa-mir-330'
p5290
g3742
sS'hsa-mir-186'
p5291
g2583
sS'hsa-mir-382'
p5292
g2915
sS'hsa-mir-211'
p5293
g1274
sS'hsa-mir-507'
p5294
g5148
sS'hsa-mir-423'
p5295
g833
sS'hsa-mir-500'
p5296
g5195
sS'hsa-mir-520a'
p5297
g1525
sS'hsa-mir-525'
p5298
g4226
sS'hsa-mir-520c'
p5299
g1574
sS'hsa-mir-520b'
p5300
g1619
sS'hsa-mir-520e'
p5301
g1667
sS'hsa-mir-520d'
p5302
g1688
sS'hsa-mir-520g'
p5303
g1747
sS'hsa-mir-523'
p5304
g3948
sS'hsa-mir-300'
p5305
g3216
sS'hsa-mir-520h'
p5306
g1821
sS'hsa-mir-325'
p5307
g4331
sS'hsa-mir-297'
p5308
g1912
ssg474
(dp5309
S'hsa-mir-379'
p5310
g506
sS'hsa-mir-495'
p5311
g2204
sS'hsa-mir-362'
p5312
g1374
sS'hsa-mir-501'
p5313
g5208
ssg476
(dp5314
S'hsa-mir-95'
p5315
g4149
sS'hsa-mir-132'
p5316
g3819
sS'hsa-mir-191'
p5317
g2025
sS'hsa-mir-101'
p5318
g2407
sS'hsa-mir-223'
p5319
g4840
ssg478
(dp5320
S'hsa-mir-25'
p5321
g4494
sS'hsa-mir-7'
p5322
g1099
sS'hsa-mir-17'
p5323
g3802
sS'hsa-mir-132'
p5324
g3821
sg386
g4644
sS'hsa-mir-429'
p5325
g2841
sS'hsa-mir-27a'
p5326
g5001
sS'hsa-mir-30b'
p5327
g1378
sS'hsa-mir-29b'
p5328
g998
sS'hsa-mir-93'
p5329
g4127
sS'hsa-mir-29a'
p5330
g1015
ssg480
(dp5331
S'hsa-mir-301b'
p5332
g3841
sS'hsa-mir-376a'
p5333
g3885
sS'hsa-mir-301a'
p5334
g3855
sg354
g4405
sg202
g2748
ssg482
(dp5335
g174
g2478
ssg484
(dp5336
S'hsa-mir-20a'
p5337
g4115
sS'hsa-let-7a'
p5338
g3559
sg38
g733
sS'hsa-mir-17'
p5339
g3807
sg228
g3134
sS'hsa-mir-19a'
p5340
g878
sS'hsa-mir-19b'
p5341
g963
sS'hsa-mir-18a'
p5342
g3158
sS'hsa-mir-221'
p5343
g4829
ssg486
(dp5344
g92
g1366
ssg488
(dp5345
S'hsa-mir-132'
p5346
g3831
sg490
(dp5347
ssg490
(dp5348
S'hsa-mir-146b'
p5349
g5347
ssg492
(dp5350
S'hsa-mir-495'
p5351
g2207
sS'hsa-mir-299'
p5352
g1832
sssS'graph'
p5353
(dp5354
sS'adjlist_dict_factory'
p5355
g495
sS'adj'
p5356
g498
sb.