(lp0
S'hsa-mir-453'
p1
aS'hsa-mir-379'
p2
aS'hsa-mir-203'
p3
aS'hsa-mir-205'
p4
aS'hsa-mir-526b'
p5
aS'hsa-mir-526a'
p6
aS'hsa-mir-92a'
p7
aS'hsa-mir-371'
p8
aS'hsa-mir-370'
p9
aS'hsa-mir-373'
p10
aS'hsa-mir-372'
p11
aS'hsa-mir-375'
p12
aS'hsa-mir-377'
p13
aS'hsa-mir-381'
p14
aS'hsa-mir-126'
p15
aS'hsa-mir-127'
p16
aS'hsa-mir-129'
p17
aS'hsa-mir-19a'
p18
aS'hsa-mir-575'
p19
aS'hsa-mir-19b'
p20
aS'hsa-mir-135a'
p21
aS'hsa-mir-32'
p22
aS'hsa-mir-29b'
p23
aS'hsa-mir-29c'
p24
aS'hsa-mir-29a'
p25
aS'hsa-mir-181d'
p26
aS'hsa-mir-1'
p27
aS'hsa-mir-769'
p28
aS'hsa-mir-181a'
p29
aS'hsa-mir-181b'
p30
aS'hsa-mir-181c'
p31
aS'hsa-mir-486'
p32
aS'hsa-mir-484'
p33
aS'hsa-mir-217'
p34
aS'hsa-mir-214'
p35
aS'hsa-mir-215'
p36
aS'hsa-mir-212'
p37
aS'hsa-mir-210'
p38
aS'hsa-mir-211'
p39
aS'hsa-mir-367'
p40
aS'hsa-mir-92b'
p41
aS'hsa-mir-365'
p42
aS'hsa-mir-362'
p43
aS'hsa-mir-188'
p44
aS'hsa-mir-218'
p45
aS'hsa-mir-219'
p46
aS'hsa-mir-520a'
p47
aS'hsa-mir-520c'
p48
aS'hsa-mir-520b'
p49
aS'hsa-mir-520e'
p50
aS'hsa-mir-520d'
p51
aS'hsa-mir-7'
p52
aS'hsa-mir-520f'
p53
aS'hsa-mir-9'
p54
aS'hsa-mir-297'
p55
aS'hsa-mir-299'
p56
aS'hsa-mir-409'
p57
aS'hsa-mir-296'
p58
aS'hsa-mir-642'
p59
aS'hsa-mir-561'
p60
aS'hsa-mir-195'
p61
aS'hsa-mir-194'
p62
aS'hsa-mir-197'
p63
aS'hsa-mir-191'
p64
aS'hsa-mir-190'
p65
aS'hsa-mir-204'
p66
aS'hsa-mir-151'
p67
aS'hsa-mir-657'
p68
aS'hsa-mir-654'
p69
aS'hsa-mir-652'
p70
aS'hsa-mir-499'
p71
aS'hsa-mir-494'
p72
aS'hsa-mir-495'
p73
aS'hsa-mir-302d'
p74
aS'hsa-mir-302c'
p75
aS'hsa-mir-302b'
p76
aS'hsa-mir-658'
p77
aS'hsa-mir-103'
p78
aS'hsa-mir-100'
p79
aS'hsa-mir-101'
p80
aS'hsa-mir-107'
p81
aS'hsa-mir-525'
p82
aS'hsa-mir-200b'
p83
aS'hsa-mir-200c'
p84
aS'hsa-mir-200a'
p85
aS'hsa-mir-411'
p86
aS'hsa-mir-557'
p87
aS'hsa-mir-550'
p88
aS'hsa-mir-433'
p89
aS'hsa-mir-183'
p90
aS'hsa-mir-27b'
p91
aS'hsa-mir-186'
p92
aS'hsa-mir-187'
p93
aS'hsa-mir-185'
p94
aS'hsa-mir-30a'
p95
aS'hsa-mir-30b'
p96
aS'hsa-mir-30c'
p97
aS'hsa-mir-30d'
p98
aS'hsa-mir-30e'
p99
aS'hsa-mir-518b'
p100
aS'hsa-mir-449a'
p101
aS'hsa-mir-518c'
p102
aS'hsa-mir-10b'
p103
aS'hsa-mir-429'
p104
aS'hsa-mir-622'
p105
aS'hsa-mir-382'
p106
aS'hsa-mir-383'
p107
aS'hsa-mir-208b'
p108
aS'hsa-mir-339'
p109
aS'hsa-mir-423'
p110
aS'hsa-let-7g'
p111
aS'hsa-mir-18b'
p112
aS'hsa-mir-18a'
p113
aS'hsa-mir-99a'
p114
aS'hsa-mir-99b'
p115
aS'hsa-mir-300'
p116
aS'hsa-mir-133a'
p117
aS'hsa-mir-133b'
p118
aS'hsa-mir-193b'
p119
aS'hsa-mir-26a'
p120
aS'hsa-mir-192'
p121
aS'hsa-mir-15a'
p122
aS'hsa-mir-25'
p123
aS'hsa-mir-421'
p124
aS'hsa-mir-154'
p125
aS'hsa-mir-637'
p126
aS'hsa-mir-638'
p127
aS'hsa-mir-432'
p128
aS'hsa-mir-629'
p129
aS'hsa-mir-431'
p130
aS'hsa-let-7b'
p131
aS'hsa-let-7c'
p132
aS'hsa-let-7a'
p133
aS'hsa-let-7f'
p134
aS'hsa-mir-338'
p135
aS'hsa-let-7d'
p136
aS'hsa-let-7e'
p137
aS'hsa-mir-335'
p138
aS'hsa-mir-337'
p139
aS'hsa-let-7i'
p140
aS'hsa-mir-331'
p141
aS'hsa-mir-330'
p142
aS'hsa-mir-539'
p143
aS'hsa-mir-196a'
p144
aS'hsa-mir-152'
p145
aS'hsa-mir-125b'
p146
aS'hsa-mir-497'
p147
aS'hsa-mir-17'
p148
aS'hsa-mir-16'
p149
aS'hsa-mir-301b'
p150
aS'hsa-mir-301a'
p151
aS'hsa-mir-199a'
p152
aS'hsa-mir-376a'
p153
aS'hsa-mir-153'
p154
aS'hsa-mir-376c'
p155
aS'hsa-mir-601'
p156
aS'hsa-mir-302a'
p157
aS'hsa-mir-602'
p158
aS'hsa-mir-340'
p159
aS'hsa-mir-93'
p160
aS'hsa-mir-615'
p161
aS'hsa-mir-95'
p162
aS'hsa-mir-608'
p163
aS'hsa-mir-323'
p164
aS'hsa-mir-320'
p165
aS'hsa-mir-448'
p166
aS'hsa-mir-521'
p167
aS'hsa-mir-324'
p168
aS'hsa-mir-523'
p169
aS'hsa-mir-135b'
p170
aS'hsa-mir-328'
p171
aS'hsa-mir-487b'
p172
aS'hsa-mir-144'
p173
aS'hsa-mir-33a'
p174
aS'hsa-mir-520g'
p175
aS'hsa-mir-98'
p176
aS'hsa-mir-33b'
p177
aS'hsa-mir-24'
p178
aS'hsa-mir-20a'
p179
aS'hsa-mir-21'
p180
aS'hsa-mir-22'
p181
aS'hsa-mir-596'
p182
aS'hsa-mir-612'
p183
aS'hsa-mir-598'
p184
aS'hsa-mir-611'
p185
aS'hsa-mir-28'
p186
aS'hsa-mir-23a'
p187
aS'hsa-mir-23b'
p188
aS'hsa-mir-449b'
p189
aS'hsa-mir-148b'
p190
aS'hsa-mir-148a'
p191
aS'hsa-mir-145'
p192
aS'hsa-mir-142'
p193
aS'hsa-mir-143'
p194
aS'hsa-mir-140'
p195
aS'hsa-mir-141'
p196
aS'hsa-mir-510'
p197
aS'hsa-mir-125a'
p198
aS'hsa-mir-515'
p199
aS'hsa-mir-222'
p200
aS'hsa-mir-221'
p201
aS'hsa-mir-149'
p202
aS'hsa-mir-512'
p203
aS'hsa-mir-223'
p204
aS'hsa-mir-452'
p205
aS'hsa-mir-128b'
p206
aS'hsa-mir-454'
p207
aS'hsa-mir-488'
p208
aS'hsa-mir-20b'
p209
aS'hsa-mir-34a'
p210
aS'hsa-mir-34b'
p211
aS'hsa-mir-34c'
p212
aS'hsa-mir-220'
p213
aS'hsa-mir-216a'
p214
aS'hsa-mir-216b'
p215
aS'hsa-mir-325'
p216
aS'hsa-mir-583'
p217
aS'hsa-mir-27a'
p218
aS'hsa-mir-663'
p219
aS'hsa-mir-662'
p220
aS'hsa-mir-660'
p221
aS'hsa-mir-516a'
p222
aS'hsa-mir-516b'
p223
aS'hsa-mir-130a'
p224
aS'hsa-mir-130b'
p225
aS'hsa-mir-520h'
p226
aS'hsa-mir-507'
p227
aS'hsa-mir-500'
p228
aS'hsa-mir-501'
p229
aS'hsa-mir-132'
p230
aS'hsa-mir-346'
p231
aS'hsa-mir-137'
p232
aS'hsa-mir-136'
p233
aS'hsa-mir-134'
p234
aS'hsa-mir-106a'
p235
aS'hsa-mir-106b'
p236
aS'hsa-mir-376b'
p237
aS'hsa-mir-199b'
p238
aS'hsa-mir-155'
p239
aS'hsa-mir-542'
p240
aS'hsa-mir-146b'
p241
aS'hsa-mir-146a'
p242
aS'hsa-mir-600'
p243
a.